(lp0
(I0
I211
tp1
a(I0
I394
tp2
a(I0
I402
tp3
a(I0
I583
tp4
a(I0
I843
tp5
a(I0
I863
tp6
a(I1
I135
tp7
a(I1
I159
tp8
a(I1
I621
tp9
a(I1
I622
tp10
a(I1
I856
tp11
a(I3
I788
tp12
a(I4
I312
tp13
a(I4
I672
tp14
a(I4
I760
tp15
a(I4
I865
tp16
a(I4
I866
tp17
a(I5
I210
tp18
a(I6
I386
tp19
a(I7
I388
tp20
a(I7
I439
tp21
a(I7
I584
tp22
a(I7
I857
tp23
a(I8
I286
tp24
a(I8
I591
tp25
a(I8
I860
tp26
a(I9
I12
tp27
a(I9
I70
tp28
a(I9
I733
tp29
a(I9
I864
tp30
a(I10
I670
tp31
a(I10
I854
tp32
a(I10
I858
tp33
a(I12
I217
tp34
a(I12
I855
tp35
a(I14
I274
tp36
a(I14
I711
tp37
a(I14
I960
tp38
a(I15
I241
tp39
a(I15
I620
tp40
a(I16
I216
tp41
a(I16
I393
tp42
a(I17
I240
tp43
a(I17
I772
tp44
a(I18
I223
tp45
a(I18
I648
tp46
a(I19
I401
tp47
a(I19
I660
tp48
a(I20
I390
tp49
a(I20
I573
tp50
a(I20
I602
tp51
a(I21
I862
tp52
a(I23
I34
tp53
a(I23
I53
tp54
a(I23
I411
tp55
a(I25
I6
tp56
a(I25
I965
tp57
a(I26
I59
tp58
a(I27
I335
tp59
a(I27
I396
tp60
a(I28
I617
tp61
a(I29
I851
tp62
a(I30
I385
tp63
a(I30
I786
tp64
a(I30
I789
tp65
a(I31
I230
tp66
a(I31
I795
tp67
a(I31
I867
tp68
a(I32
I334
tp69
a(I33
I861
tp70
a(I34
I515
tp71
a(I34
I852
tp72
a(I35
I229
tp73
a(I36
I332
tp74
a(I36
I387
tp75
a(I37
I36
tp76
a(I39
I392
tp77
a(I40
I619
tp78
a(I41
I452
tp79
a(I41
I842
tp80
a(I41
I906
tp81
a(I43
I579
tp82
a(I44
I42
tp83
a(I44
I400
tp84
a(I45
I389
tp85
a(I45
I578
tp86
a(I46
I859
tp87
a(I46
I880
tp88
a(I47
I13
tp89
a(I48
I395
tp90
a(I48
I913
tp91
a(I50
I384
tp92
a(I50
I796
tp93
a(I51
I151
tp94
a(I51
I204
tp95
a(I51
I226
tp96
a(I51
I682
tp97
a(I52
I221
tp98
a(I52
I582
tp99
a(I52
I684
tp100
a(I53
I62
tp101
a(I53
I66
tp102
a(I53
I366
tp103
a(I54
I197
tp104
a(I55
I4
tp105
a(I55
I55
tp106
a(I55
I589
tp107
a(I56
I54
tp108
a(I56
I399
tp109
a(I56
I597
tp110
a(I56
I613
tp111
a(I59
I111
tp112
a(I59
I494
tp113
a(I60
I40
tp114
a(I60
I220
tp115
a(I61
I649
tp116
a(I62
I592
tp117
a(I62
I787
tp118
a(I63
I391
tp119
a(I63
I448
tp120
a(I64
I17
tp121
a(I64
I595
tp122
a(I67
I35
tp123
a(I67
I239
tp124
a(I68
I110
tp125
a(I68
I594
tp126
a(I69
I846
tp127
a(I69
I923
tp128
a(I71
I424
tp129
a(I71
I773
tp130
a(I72
I671
tp131
a(I72
I952
tp132
a(I76
I213
tp133
a(I76
I242
tp134
a(I77
I219
tp135
a(I77
I275
tp136
a(I77
I774
tp137
a(I79
I122
tp138
a(I79
I926
tp139
a(I81
I27
tp140
a(I81
I907
tp141
a(I82
I215
tp142
a(I82
I235
tp143
a(I84
I9
tp144
a(I84
I495
tp145
a(I84
I950
tp146
a(I86
I202
tp147
a(I86
I218
tp148
a(I87
I908
tp149
a(I88
I228
tp150
a(I88
I609
tp151
a(I89
I585
tp152
a(I90
I771
tp153
a(I91
I874
tp154
a(I92
I67
tp155
a(I92
I174
tp156
a(I92
I599
tp157
a(I94
I58
tp158
a(I96
I48
tp159
a(I96
I658
tp160
a(I96
I850
tp161
a(I97
I823
tp162
a(I98
I615
tp163
a(I99
I328
tp164
a(I100
I243
tp165
a(I101
I97
tp166
a(I101
I759
tp167
a(I101
I901
tp168
a(I102
I966
tp169
a(I103
I10
tp170
a(I104
I46
tp171
a(I104
I562
tp172
a(I107
I209
tp173
a(I111
I8
tp174
a(I111
I236
tp175
a(I111
I428
tp176
a(I111
I916
tp177
a(I113
I50
tp178
a(I113
I576
tp179
a(I115
I3
tp180
a(I118
I65
tp181
a(I118
I379
tp182
a(I120
I824
tp183
a(I121
I608
tp184
a(I122
I287
tp185
a(I124
I15
tp186
a(I124
I593
tp187
a(I124
I715
tp188
a(I124
I873
tp189
a(I124
I924
tp190
a(I125
I33
tp191
a(I127
I441
tp192
a(I127
I758
tp193
a(I128
I225
tp194
a(I130
I822
tp195
a(I133
I30
tp196
a(I133
I109
tp197
a(I134
I237
tp198
a(I136
I222
tp199
a(I138
I598
tp200
a(I139
I586
tp201
a(I140
I957
tp202
a(I141
I721
tp203
a(I142
I471
tp204
a(I142
I477
tp205
a(I143
I936
tp206
a(I144
I397
tp207
a(I144
I600
tp208
a(I144
I947
tp209
a(I145
I94
tp210
a(I145
I358
tp211
a(I145
I927
tp212
a(I146
I57
tp213
a(I146
I596
tp214
a(I147
I446
tp215
a(I149
I433
tp216
a(I150
I212
tp217
a(I153
I333
tp218
a(I153
I342
tp219
a(I154
I133
tp220
a(I156
I164
tp221
a(I158
I879
tp222
a(I159
I44
tp223
a(I160
I663
tp224
a(I161
I233
tp225
a(I161
I887
tp226
a(I163
I134
tp227
a(I164
I60
tp228
a(I164
I227
tp229
a(I164
I712
tp230
a(I165
I214
tp231
a(I165
I958
tp232
a(I166
I45
tp233
a(I166
I929
tp234
a(I169
I121
tp235
a(I169
I150
tp236
a(I170
I38
tp237
a(I171
I444
tp238
a(I171
I558
tp239
a(I171
I883
tp240
a(I172
I187
tp241
a(I172
I320
tp242
a(I172
I605
tp243
a(I174
I18
tp244
a(I175
I761
tp245
a(I177
I470
tp246
a(I178
I868
tp247
a(I179
I821
tp248
a(I180
I935
tp249
a(I185
I885
tp250
a(I186
I49
tp251
a(I186
I224
tp252
a(I187
I340
tp253
a(I187
I437
tp254
a(I188
I16
tp255
a(I188
I590
tp256
a(I190
I496
tp257
a(I190
I604
tp258
a(I193
I553
tp259
a(I193
I676
tp260
a(I194
I689
tp261
a(I203
I263
tp262
a(I204
I37
tp263
a(I205
I939
tp264
a(I206
I432
tp265
a(I208
I473
tp266
a(I209
I352
tp267
a(I210
I43
tp268
a(I213
I273
tp269
a(I214
I0
tp270
a(I214
I450
tp271
a(I214
I709
tp272
a(I216
I606
tp273
a(I220
I888
tp274
a(I221
I782
tp275
a(I222
I157
tp276
a(I223
I136
tp277
a(I223
I176
tp278
a(I223
I702
tp279
a(I225
I398
tp280
a(I225
I493
tp281
a(I225
I542
tp282
a(I226
I69
tp283
a(I226
I618
tp284
a(I227
I523
tp285
a(I228
I434
tp286
a(I229
I954
tp287
a(I232
I14
tp288
a(I233
I23
tp289
a(I234
I120
tp290
a(I235
I5
tp291
a(I239
I601
tp292
a(I240
I154
tp293
a(I243
I877
tp294
a(I244
I7
tp295
a(I244
I953
tp296
a(I245
I231
tp297
a(I245
I704
tp298
a(I246
I511
tp299
a(I246
I587
tp300
a(I249
I427
tp301
a(I249
I607
tp302
a(I251
I767
tp303
a(I251
I826
tp304
a(I252
I283
tp305
a(I254
I63
tp306
a(I254
I232
tp307
a(I257
I474
tp308
a(I257
I942
tp309
a(I258
I279
tp310
a(I258
I650
tp311
a(I260
I683
tp312
a(I266
I588
tp313
a(I267
I61
tp314
a(I267
I421
tp315
a(I267
I792
tp316
a(I268
I417
tp317
a(I268
I763
tp318
a(I269
I256
tp319
a(I269
I438
tp320
a(I269
I751
tp321
a(I272
I326
tp322
a(I273
I41
tp323
a(I273
I413
tp324
a(I273
I699
tp325
a(I274
I959
tp326
a(I275
I260
tp327
a(I275
I292
tp328
a(I276
I255
tp329
a(I278
I1
tp330
a(I278
I614
tp331
a(I280
I487
tp332
a(I281
I566
tp333
a(I283
I662
tp334
a(I283
I963
tp335
a(I285
I791
tp336
a(I286
I734
tp337
a(I290
I748
tp338
a(I290
I928
tp339
a(I292
I813
tp340
a(I293
I71
tp341
a(I294
I412
tp342
a(I295
I436
tp343
a(I295
I454
tp344
a(I295
I466
tp345
a(I296
I685
tp346
a(I297
I170
tp347
a(I297
I451
tp348
a(I299
I26
tp349
a(I299
I288
tp350
a(I299
I794
tp351
a(I300
I961
tp352
a(I301
I754
tp353
a(I306
I206
tp354
a(I306
I556
tp355
a(I307
I56
tp356
a(I308
I308
tp357
a(I309
I323
tp358
a(I309
I510
tp359
a(I314
I268
tp360
a(I314
I925
tp361
a(I315
I32
tp362
a(I315
I521
tp363
a(I316
I881
tp364
a(I318
I948
tp365
a(I321
I651
tp366
a(I321
I810
tp367
a(I322
I801
tp368
a(I323
I86
tp369
a(I324
I743
tp370
a(I325
I423
tp371
a(I329
I414
tp372
a(I329
I559
tp373
a(I329
I575
tp374
a(I329
I728
tp375
a(I331
I117
tp376
a(I331
I440
tp377
a(I331
I679
tp378
a(I332
I356
tp379
a(I332
I426
tp380
a(I334
I664
tp381
a(I336
I324
tp382
a(I336
I955
tp383
a(I340
I348
tp384
a(I340
I637
tp385
a(I342
I403
tp386
a(I342
I405
tp387
a(I345
I497
tp388
a(I346
I612
tp389
a(I347
I193
tp390
a(I347
I964
tp391
a(I348
I289
tp392
a(I350
I205
tp393
a(I350
I526
tp394
a(I350
I938
tp395
a(I351
I238
tp396
a(I351
I425
tp397
a(I351
I519
tp398
a(I351
I844
tp399
a(I355
I190
tp400
a(I356
I177
tp401
a(I360
I163
tp402
a(I363
I272
tp403
a(I364
I307
tp404
a(I364
I817
tp405
a(I365
I153
tp406
a(I367
I665
tp407
a(I367
I848
tp408
a(I368
I29
tp409
a(I368
I853
tp410
a(I371
I132
tp411
a(I372
I329
tp412
a(I373
I902
tp413
a(I374
I524
tp414
a(I374
I568
tp415
a(I375
I462
tp416
a(I376
I577
tp417
a(I377
I155
tp418
a(I377
I956
tp419
a(I378
I244
tp420
a(I379
I315
tp421
a(I381
I809
tp422
a(I382
I962
tp423
a(I384
I64
tp424
a(I384
I107
tp425
a(I384
I311
tp426
a(I384
I644
tp427
a(I387
I641
tp428
a(I387
I909
tp429
a(I389
I376
tp430
a(I390
I574
tp431
a(I392
I422
tp432
a(I392
I570
tp433
a(I393
I569
tp434
a(I393
I777
tp435
a(I395
I673
tp436
a(I395
I944
tp437
a(I396
I409
tp438
a(I397
I172
tp439
a(I398
I882
tp440
a(I399
I580
tp441
a(I400
I39
tp442
a(I401
I491
tp443
a(I401
I514
tp444
a(I403
I11
tp445
a(I403
I480
tp446
a(I403
I499
tp447
a(I404
I377
tp448
a(I407
I680
tp449
a(I408
I492
tp450
a(I410
I89
tp451
a(I410
I869
tp452
a(I411
I156
tp453
a(I411
I545
tp454
a(I412
I770
tp455
a(I413
I611
tp456
a(I415
I194
tp457
a(I415
I540
tp458
a(I417
I659
tp459
a(I418
I353
tp460
a(I420
I74
tp461
a(I420
I886
tp462
a(I424
I736
tp463
a(I424
I884
tp464
a(I425
I152
tp465
a(I425
I199
tp466
a(I425
I946
tp467
a(I427
I234
tp468
a(I431
I727
tp469
a(I434
I764
tp470
a(I435
I406
tp471
a(I435
I688
tp472
a(I438
I878
tp473
a(I439
I790
tp474
a(I440
I560
tp475
a(I442
I191
tp476
a(I443
I316
tp477
a(I444
I115
tp478
a(I444
I516
tp479
a(I445
I375
tp480
a(I445
I415
tp481
a(I445
I449
tp482
a(I445
I554
tp483
a(I446
I21
tp484
a(I447
I207
tp485
a(I447
I476
tp486
a(I447
I838
tp487
a(I449
I140
tp488
a(I449
I932
tp489
a(I450
I200
tp490
a(I450
I834
tp491
a(I451
I52
tp492
a(I452
I75
tp493
a(I453
I567
tp494
a(I455
I478
tp495
a(I455
I941
tp496
a(I458
I945
tp497
a(I460
I175
tp498
a(I460
I911
tp499
a(I461
I724
tp500
a(I462
I313
tp501
a(I465
I707
tp502
a(I466
I290
tp503
a(I466
I357
tp504
a(I466
I547
tp505
a(I466
I698
tp506
a(I467
I731
tp507
a(I468
I261
tp508
a(I471
I20
tp509
a(I472
I98
tp510
a(I472
I804
tp511
a(I473
I327
tp512
a(I473
I435
tp513
a(I473
I610
tp514
a(I474
I730
tp515
a(I477
I538
tp516
a(I478
I118
tp517
a(I478
I920
tp518
a(I479
I447
tp519
a(I479
I564
tp520
a(I480
I165
tp521
a(I484
I623
tp522
a(I487
I126
tp523
a(I487
I488
tp524
a(I488
I258
tp525
a(I488
I416
tp526
a(I489
I750
tp527
a(I490
I723
tp528
a(I491
I706
tp529
a(I493
I277
tp530
a(I494
I270
tp531
a(I494
I520
tp532
a(I495
I816
tp533
a(I497
I251
tp534
a(I497
I281
tp535
a(I497
I918
tp536
a(I498
I443
tp537
a(I499
I930
tp538
a(I502
I549
tp539
a(I505
I418
tp540
a(I506
I28
tp541
a(I506
I360
tp542
a(I507
I410
tp543
a(I507
I870
tp544
a(I508
I820
tp545
a(I509
I636
tp546
a(I509
I710
tp547
a(I509
I780
tp548
a(I510
I85
tp549
a(I511
I529
tp550
a(I512
I949
tp551
a(I513
I349
tp552
a(I513
I652
tp553
a(I513
I876
tp554
a(I514
I284
tp555
a(I518
I297
tp556
a(I519
I378
tp557
a(I520
I483
tp558
a(I521
I123
tp559
a(I521
I539
tp560
a(I521
I729
tp561
a(I521
I814
tp562
a(I522
I31
tp563
a(I523
I266
tp564
a(I525
I148
tp565
a(I526
I429
tp566
a(I528
I305
tp567
a(I529
I182
tp568
a(I531
I740
tp569
a(I532
I669
tp570
a(I533
I142
tp571
a(I534
I431
tp572
a(I534
I899
tp573
a(I535
I509
tp574
a(I535
I674
tp575
a(I536
I249
tp576
a(I536
I943
tp577
a(I540
I112
tp578
a(I542
I486
tp579
a(I543
I407
tp580
a(I545
I330
tp581
a(I547
I318
tp582
a(I547
I382
tp583
a(I548
I543
tp584
a(I550
I696
tp585
a(I551
I445
tp586
a(I551
I934
tp587
a(I553
I475
tp588
a(I557
I557
tp589
a(I557
I717
tp590
a(I558
I90
tp591
a(I558
I507
tp592
a(I560
I158
tp593
a(I561
I732
tp594
a(I562
I747
tp595
a(I563
I722
tp596
a(I564
I208
tp597
a(I564
I875
tp598
a(I565
I380
tp599
a(I565
I408
tp600
a(I565
I479
tp601
a(I568
I359
tp602
a(I569
I829
tp603
a(I575
I841
tp604
a(I577
I919
tp605
a(I578
I726
tp606
a(I578
I914
tp607
a(I580
I369
tp608
a(I580
I482
tp609
a(I582
I331
tp610
a(I584
I845
tp611
a(I584
I937
tp612
a(I585
I442
tp613
a(I585
I541
tp614
a(I586
I490
tp615
a(I587
I314
tp616
a(I589
I83
tp617
a(I589
I719
tp618
a(I590
I565
tp619
a(I590
I678
tp620
a(I590
I752
tp621
a(I591
I481
tp622
a(I592
I291
tp623
a(I594
I198
tp624
a(I595
I793
tp625
a(I596
I555
tp626
a(I598
I940
tp627
a(I599
I716
tp628
a(I600
I713
tp629
a(I601
I125
tp630
a(I601
I889
tp631
a(I602
I675
tp632
a(I606
I915
tp633
a(I607
I420
tp634
a(I608
I339
tp635
a(I610
I145
tp636
a(I610
I367
tp637
a(I614
I295
tp638
a(I614
I640
tp639
a(I614
I757
tp640
a(I615
I512
tp641
a(I616
I201
tp642
a(I617
I262
tp643
a(I617
I626
tp644
a(I618
I518
tp645
a(I619
I645
tp646
a(I620
I370
tp647
a(I622
I51
tp648
a(I622
I361
tp649
a(I625
I546
tp650
a(I626
I871
tp651
a(I628
I825
tp652
a(I632
I322
tp653
a(I632
I355
tp654
a(I632
I368
tp655
a(I632
I828
tp656
a(I633
I485
tp657
a(I634
I548
tp658
a(I638
I933
tp659
a(I639
I951
tp660
a(I640
I904
tp661
a(I641
I849
tp662
a(I642
I102
tp663
a(I642
I113
tp664
a(I644
I264
tp665
a(I645
I784
tp666
a(I646
I144
tp667
a(I646
I160
tp668
a(I646
I178
tp669
a(I646
I203
tp670
a(I648
I87
tp671
a(I651
I179
tp672
a(I651
I419
tp673
a(I651
I762
tp674
a(I652
I469
tp675
a(I652
I705
tp676
a(I653
I139
tp677
a(I654
I404
tp678
a(I657
I616
tp679
a(I660
I108
tp680
a(I660
I467
tp681
a(I662
I103
tp682
a(I662
I130
tp683
a(I662
I180
tp684
a(I667
I351
tp685
a(I669
I285
tp686
a(I670
I166
tp687
a(I671
I124
tp688
a(I671
I532
tp689
a(I671
I905
tp690
a(I674
I643
tp691
a(I678
I625
tp692
a(I679
I84
tp693
a(I680
I184
tp694
a(I681
I181
tp695
a(I681
I720
tp696
a(I682
I309
tp697
a(I683
I430
tp698
a(I685
I364
tp699
a(I686
I847
tp700
a(I688
I756
tp701
a(I690
I776
tp702
a(I691
I768
tp703
a(I695
I544
tp704
a(I696
I903
tp705
a(I697
I891
tp706
a(I698
I282
tp707
a(I699
I534
tp708
a(I699
I714
tp709
a(I701
I321
tp710
a(I702
I653
tp711
a(I703
I337
tp712
a(I705
I561
tp713
a(I706
I381
tp714
a(I706
I513
tp715
a(I711
I247
tp716
a(I711
I738
tp717
a(I714
I185
tp718
a(I716
I293
tp719
a(I717
I47
tp720
a(I718
I530
tp721
a(I720
I188
tp722
a(I720
I552
tp723
a(I720
I912
tp724
a(I721
I306
tp725
a(I721
I661
tp726
a(I722
I647
tp727
a(I723
I76
tp728
a(I723
I92
tp729
a(I725
I383
tp730
a(I725
I550
tp731
a(I726
I812
tp732
a(I727
I116
tp733
a(I728
I371
tp734
a(I729
I149
tp735
a(I731
I192
tp736
a(I732
I104
tp737
a(I732
I922
tp738
a(I735
I831
tp739
a(I737
I128
tp740
a(I738
I106
tp741
a(I738
I173
tp742
a(I738
I931
tp743
a(I739
I551
tp744
a(I744
I691
tp745
a(I747
I453
tp746
a(I747
I745
tp747
a(I747
I766
tp748
a(I754
I253
tp749
a(I754
I703
tp750
a(I755
I246
tp751
a(I755
I872
tp752
a(I756
I19
tp753
a(I766
I895
tp754
a(I768
I517
tp755
a(I771
I695
tp756
a(I772
I278
tp757
a(I772
I836
tp758
a(I773
I91
tp759
a(I773
I677
tp760
a(I775
I245
tp761
a(I775
I535
tp762
a(I777
I68
tp763
a(I777
I114
tp764
a(I777
I522
tp765
a(I778
I634
tp766
a(I779
I910
tp767
a(I780
I533
tp768
a(I781
I189
tp769
a(I783
I457
tp770
a(I784
I464
tp771
a(I786
I168
tp772
a(I786
I276
tp773
a(I790
I267
tp774
a(I792
I735
tp775
a(I794
I627
tp776
a(I795
I161
tp777
a(I801
I459
tp778
a(I803
I668
tp779
a(I808
I363
tp780
a(I808
I603
tp781
a(I809
I141
tp782
a(I810
I666
tp783
a(I811
I119
tp784
a(I813
I501
tp785
a(I814
I374
tp786
a(I820
I638
tp787
a(I821
I725
tp788
a(I825
I99
tp789
a(I825
I302
tp790
a(I827
I186
tp791
a(I827
I737
tp792
a(I828
I265
tp793
a(I828
I797
tp794
a(I830
I296
tp795
a(I830
I833
tp796
a(I830
I917
tp797
a(I833
I898
tp798
a(I836
I779
tp799
a(I837
I718
tp800
a(I839
I837
tp801
a(I845
I489
tp802
a(I846
I818
tp803
a(I850
I301
tp804
a(I851
I350
tp805
a(I853
I508
tp806
a(I856
I484
tp807
a(I857
I248
tp808
a(I859
I739
tp809
a(I861
I681
tp810
a(I862
I101
tp811
a(I863
I463
tp812
a(I868
I22
tp813
a(I869
I195
tp814
a(I869
I372
tp815
a(I872
I131
tp816
a(I872
I693
tp817
a(I872
I700
tp818
a(I878
I299
tp819
a(I881
I775
tp820
a(I882
I167
tp821
a(I883
I525
tp822
a(I890
I95
tp823
a(I890
I338
tp824
a(I891
I317
tp825
a(I893
I830
tp826
a(I895
I127
tp827
a(I896
I346
tp828
a(I904
I460
tp829
a(I904
I655
tp830
a(I905
I319
tp831
a(I906
I100
tp832
a(I910
I196
tp833
a(I910
I697
tp834
a(I911
I785
tp835
a(I911
I890
tp836
a(I913
I77
tp837
a(I913
I138
tp838
a(I913
I572
tp839
a(I914
I310
tp840
a(I914
I892
tp841
a(I916
I894
tp842
a(I917
I271
tp843
a(I919
I336
tp844
a(I926
I250
tp845
a(I928
I503
tp846
a(I931
I280
tp847
a(I931
I783
tp848
a(I932
I832
tp849
a(I933
I362
tp850
a(I934
I169
tp851
a(I934
I628
tp852
a(I938
I896
tp853
a(I940
I344
tp854
a(I943
I802
tp855
a(I944
I835
tp856
a(I946
I506
tp857
a(I951
I78
tp858
a(I954
I162
tp859
a(I954
I642
tp860
a(I957
I502
tp861
a(I957
I656
tp862
a(I958
I88
tp863
a(I959
I147
tp864
a(I963
I341
tp865
a(I964
I298
tp866
a(I965
I93
tp867
a(I965
I744
tp868
a(I965
I921
tp869
a(I966
I778
tp870
a(I967
I143
tp871
a(I967
I183
tp872
a(I973
I129
tp873
a(I973
I257
tp874
a(I975
I254
tp875
a(I978
I692
tp876
a(I980
I325
tp877
a(I981
I365
tp878
a(I981
I455
tp879
a(I986
I827
tp880
a(I989
I840
tp881
a(I991
I137
tp882
a(I994
I347
tp883
a(I996
I528
tp884
a(I997
I563
tp885
a(I999
I769
tp886
a(I1007
I893
tp887
a(I1011
I531
tp888
a(I1013
I654
tp889
a(I1014
I79
tp890
a(I1015
I819
tp891
a(I1016
I686
tp892
a(I1021
I96
tp893
a(I1022
I300
tp894
a(I1023
I259
tp895
a(I1025
I630
tp896
a(I1025
I753
tp897
a(I1026
I294
tp898
a(I1033
I690
tp899
a(I1034
I500
tp900
a(I1036
I171
tp901
a(I1041
I571
tp902
a(I1042
I465
tp903
a(I1042
I815
tp904
a(I1043
I468
tp905
a(I1051
I527
tp906
a(I1054
I456
tp907
a(I1056
I633
tp908
a(I1065
I373
tp909
a(I1085
I687
tp910
a(I1088
I749
tp911
a(I1091
I252
tp912
a(I1092
I504
tp913
a(I1092
I639
tp914
a(I1108
I807
tp915
a(I1110
I458
tp916
a(I1111
I472
tp917
a(I1114
I498
tp918
a(I1116
I765
tp919
a(I1126
I900
tp920
a(I1132
I755
tp921
a(I1137
I581
tp922
a(I1138
I806
tp923
a(I1140
I354
tp924
a(I1143
I631
tp925
a(I1148
I811
tp926
a(I1150
I741
tp927
a(I1153
I798
tp928
a(I1156
I624
tp929
a(I1164
I799
tp930
a(I1171
I72
tp931
a(I1172
I635
tp932
a(I1179
I537
tp933
a(I1200
I708
tp934
a(I1205
I105
tp935
a(I1206
I2
tp936
a(I1206
I304
tp937
a(I1208
I269
tp938
a(I1212
I803
tp939
a(I1213
I146
tp940
a(I1225
I82
tp941
a(I1225
I781
tp942
a(I1227
I80
tp943
a(I1227
I667
tp944
a(I1234
I701
tp945
a(I1241
I73
tp946
a(I1262
I694
tp947
a(I1265
I839
tp948
a(I1304
I505
tp949
a(I1309
I742
tp950
a(I1318
I343
tp951
a(I1324
I657
tp952
a(I1333
I897
tp953
a(I1347
I536
tp954
a(I1347
I800
tp955
a(I1358
I461
tp956
a(I1358
I629
tp957
a(I1383
I805
tp958
a(I1427
I746
tp959
a(I1433
I646
tp960
a(I1447
I345
tp961
a(I1452
I303
tp962
a(I1493
I81
tp963
a(I1607
I24
tp964
a(I1719
I632
tp965
a(I1745
I25
tp966
a(I1790
I808
tp967
a.