ccopy_reg
_reconstructor
p0
(cnetworkx.classes.graph
Graph
p1
c__builtin__
object
p2
Ntp3
Rp4
(dp5
S'node'
p6
(dp7
I0
(dp8
sI1
(dp9
sI2
(dp10
sI3
(dp11
sI4
(dp12
sI5
(dp13
sI6
(dp14
sI7
(dp15
sI8
(dp16
sI9
(dp17
sI10
(dp18
sI11
(dp19
sI12
(dp20
sI13
(dp21
sI14
(dp22
sI15
(dp23
sI16
(dp24
sI17
(dp25
sI18
(dp26
sI19
(dp27
sI20
(dp28
sI21
(dp29
sI22
(dp30
sI23
(dp31
sI24
(dp32
sI25
(dp33
sI26
(dp34
sI27
(dp35
sI28
(dp36
sI29
(dp37
sI30
(dp38
sI31
(dp39
sI32
(dp40
sI33
(dp41
sI34
(dp42
sI35
(dp43
sI36
(dp44
sI37
(dp45
sI38
(dp46
sI39
(dp47
sI40
(dp48
sI41
(dp49
sI42
(dp50
sI43
(dp51
sI44
(dp52
sI45
(dp53
sI46
(dp54
sI47
(dp55
sI48
(dp56
sI49
(dp57
sI50
(dp58
sI51
(dp59
sI52
(dp60
sI53
(dp61
sI54
(dp62
sI55
(dp63
sI56
(dp64
sI57
(dp65
sI58
(dp66
sI59
(dp67
sI60
(dp68
sI61
(dp69
sI62
(dp70
sI63
(dp71
sI64
(dp72
sI65
(dp73
sI66
(dp74
sI67
(dp75
sI68
(dp76
sI69
(dp77
sI70
(dp78
sI71
(dp79
sI72
(dp80
sI73
(dp81
sI74
(dp82
sI75
(dp83
sI76
(dp84
sI77
(dp85
sI78
(dp86
sI79
(dp87
sI80
(dp88
sI81
(dp89
sI82
(dp90
sI83
(dp91
sI84
(dp92
sI85
(dp93
sI86
(dp94
sI87
(dp95
sI88
(dp96
sI89
(dp97
sI90
(dp98
sI91
(dp99
sI92
(dp100
sI93
(dp101
sI94
(dp102
sI95
(dp103
sI96
(dp104
sI97
(dp105
sI98
(dp106
sI99
(dp107
sI100
(dp108
sI101
(dp109
sI102
(dp110
sI103
(dp111
sI104
(dp112
sI105
(dp113
sI106
(dp114
sI107
(dp115
sI108
(dp116
sI109
(dp117
sI110
(dp118
sI111
(dp119
sI112
(dp120
sI113
(dp121
sI114
(dp122
sI115
(dp123
sI116
(dp124
sI117
(dp125
sI118
(dp126
sI119
(dp127
sI120
(dp128
sI121
(dp129
sI122
(dp130
sI123
(dp131
sI124
(dp132
sI125
(dp133
sI126
(dp134
sI127
(dp135
sI128
(dp136
sI129
(dp137
sI130
(dp138
sI131
(dp139
sI132
(dp140
sI133
(dp141
sI134
(dp142
sI135
(dp143
sI136
(dp144
sI137
(dp145
sI138
(dp146
sI139
(dp147
sI140
(dp148
sI141
(dp149
sI142
(dp150
sI143
(dp151
sI144
(dp152
sI145
(dp153
sI146
(dp154
sI147
(dp155
sI148
(dp156
sI149
(dp157
sI150
(dp158
sI151
(dp159
sI152
(dp160
sI153
(dp161
sI154
(dp162
sI155
(dp163
sI156
(dp164
sI157
(dp165
sI158
(dp166
sI159
(dp167
sI160
(dp168
sI161
(dp169
sI162
(dp170
sI163
(dp171
sI164
(dp172
sI165
(dp173
sI166
(dp174
sI167
(dp175
sI168
(dp176
sI169
(dp177
sI170
(dp178
sI171
(dp179
sI172
(dp180
sI173
(dp181
sI174
(dp182
sI175
(dp183
sI176
(dp184
sI177
(dp185
sI178
(dp186
sI179
(dp187
sI180
(dp188
sI181
(dp189
sI182
(dp190
sI183
(dp191
sI184
(dp192
sI185
(dp193
sI186
(dp194
sI187
(dp195
sI188
(dp196
sI189
(dp197
sI190
(dp198
sI191
(dp199
sI192
(dp200
sI193
(dp201
sI194
(dp202
sI195
(dp203
sI196
(dp204
sI197
(dp205
sI198
(dp206
sI199
(dp207
sI200
(dp208
sI201
(dp209
sI202
(dp210
sI203
(dp211
sI204
(dp212
sI205
(dp213
sI206
(dp214
sI207
(dp215
sI208
(dp216
sI209
(dp217
sI210
(dp218
sI211
(dp219
sI212
(dp220
sI213
(dp221
sI214
(dp222
sI215
(dp223
sI216
(dp224
sI217
(dp225
sI218
(dp226
sI219
(dp227
sI220
(dp228
sI221
(dp229
sI222
(dp230
sI223
(dp231
sI224
(dp232
sI225
(dp233
sI226
(dp234
sI227
(dp235
sI228
(dp236
sI229
(dp237
sI230
(dp238
sI231
(dp239
sI232
(dp240
sI233
(dp241
sI234
(dp242
sI235
(dp243
sI236
(dp244
sI237
(dp245
sI238
(dp246
sI239
(dp247
sI240
(dp248
sI241
(dp249
sI242
(dp250
sI243
(dp251
sI244
(dp252
sI245
(dp253
sI246
(dp254
sI247
(dp255
sI248
(dp256
sI249
(dp257
sI250
(dp258
sI251
(dp259
sI252
(dp260
sI253
(dp261
sI254
(dp262
sI255
(dp263
sI256
(dp264
sI257
(dp265
sI258
(dp266
sI259
(dp267
sI260
(dp268
sI261
(dp269
sI262
(dp270
sI263
(dp271
sI264
(dp272
sI265
(dp273
sI266
(dp274
sI267
(dp275
sI268
(dp276
sI269
(dp277
sI270
(dp278
sI271
(dp279
sI272
(dp280
sI273
(dp281
sI274
(dp282
sI275
(dp283
sI276
(dp284
sI277
(dp285
sI278
(dp286
sI279
(dp287
sI280
(dp288
sI281
(dp289
sI282
(dp290
sI283
(dp291
sI284
(dp292
sI285
(dp293
sI286
(dp294
sI287
(dp295
sI288
(dp296
sI289
(dp297
sI290
(dp298
sI291
(dp299
sI292
(dp300
sI293
(dp301
sI294
(dp302
sI295
(dp303
sI296
(dp304
sI297
(dp305
sI298
(dp306
sI299
(dp307
sI300
(dp308
sI301
(dp309
sI302
(dp310
sI303
(dp311
sI304
(dp312
sI305
(dp313
sI306
(dp314
sI307
(dp315
sI308
(dp316
sI309
(dp317
sI310
(dp318
sI311
(dp319
sI312
(dp320
sI313
(dp321
sI314
(dp322
sI315
(dp323
sI316
(dp324
sI317
(dp325
sI318
(dp326
sI319
(dp327
sI320
(dp328
sI321
(dp329
sI322
(dp330
sI323
(dp331
sI324
(dp332
sI325
(dp333
sI326
(dp334
sI327
(dp335
sI328
(dp336
sI329
(dp337
sI330
(dp338
sI331
(dp339
sI332
(dp340
sI333
(dp341
sI334
(dp342
sI335
(dp343
sI336
(dp344
sI337
(dp345
sI338
(dp346
sI339
(dp347
sI340
(dp348
sI341
(dp349
sI342
(dp350
sI343
(dp351
sI344
(dp352
sI345
(dp353
sI346
(dp354
sI347
(dp355
sI348
(dp356
sI349
(dp357
sI350
(dp358
sI351
(dp359
sI352
(dp360
sI353
(dp361
sI354
(dp362
sI355
(dp363
sI356
(dp364
sI357
(dp365
sI358
(dp366
sI359
(dp367
sI360
(dp368
sI361
(dp369
sI362
(dp370
sI363
(dp371
sI364
(dp372
sI365
(dp373
sI366
(dp374
sI367
(dp375
sI368
(dp376
sI369
(dp377
sI370
(dp378
sI371
(dp379
sI372
(dp380
sI373
(dp381
sI374
(dp382
sI375
(dp383
sI376
(dp384
sI377
(dp385
sI378
(dp386
sI379
(dp387
sI380
(dp388
sI381
(dp389
sI382
(dp390
sI383
(dp391
sI384
(dp392
sI385
(dp393
sI386
(dp394
sI387
(dp395
sI388
(dp396
sI389
(dp397
sI390
(dp398
sI391
(dp399
sI392
(dp400
sI393
(dp401
sI394
(dp402
sI395
(dp403
sI396
(dp404
sI397
(dp405
sI398
(dp406
sI399
(dp407
sI400
(dp408
sI401
(dp409
sI402
(dp410
sI403
(dp411
sI404
(dp412
sI405
(dp413
sI406
(dp414
sI407
(dp415
sI408
(dp416
sI409
(dp417
sI410
(dp418
sI411
(dp419
sI412
(dp420
sI413
(dp421
sI414
(dp422
sI415
(dp423
sI416
(dp424
sI417
(dp425
sI418
(dp426
sI419
(dp427
sI420
(dp428
sI421
(dp429
sI422
(dp430
sI423
(dp431
sI424
(dp432
sI425
(dp433
sI426
(dp434
sI427
(dp435
sI428
(dp436
sI429
(dp437
sI430
(dp438
sI431
(dp439
sI432
(dp440
sI433
(dp441
sI434
(dp442
sI435
(dp443
sI436
(dp444
sI437
(dp445
sI438
(dp446
sI439
(dp447
sI440
(dp448
sI441
(dp449
sI442
(dp450
sI443
(dp451
sI444
(dp452
sI445
(dp453
sI446
(dp454
sI447
(dp455
sI448
(dp456
sI449
(dp457
sI450
(dp458
sI451
(dp459
sI452
(dp460
sI453
(dp461
sI454
(dp462
sI455
(dp463
sI456
(dp464
sI457
(dp465
sI458
(dp466
sI459
(dp467
sI460
(dp468
sI461
(dp469
sI462
(dp470
sI463
(dp471
sI464
(dp472
sI465
(dp473
sI466
(dp474
sI467
(dp475
sI468
(dp476
sI469
(dp477
sI470
(dp478
sI471
(dp479
sI472
(dp480
sI473
(dp481
sI474
(dp482
sI475
(dp483
sI476
(dp484
sI477
(dp485
sI478
(dp486
sI479
(dp487
sI480
(dp488
sI481
(dp489
sI482
(dp490
sI483
(dp491
sI484
(dp492
sI485
(dp493
sI486
(dp494
sI487
(dp495
sI488
(dp496
sI489
(dp497
sI490
(dp498
sI491
(dp499
sI492
(dp500
sI493
(dp501
sI494
(dp502
sI495
(dp503
sI496
(dp504
sI497
(dp505
sI498
(dp506
sI499
(dp507
ssS'graph'
p508
(dp509
sS'edge'
p510
(dp511
I0
(dp512
I1
(dp513
sI2
(dp514
sI3
(dp515
sI4
(dp516
sI5
(dp517
sI6
(dp518
sI7
(dp519
sI8
(dp520
sI9
(dp521
sI10
(dp522
ssI1
(dp523
I0
g513
ssI2
(dp524
I0
g514
ssI3
(dp525
I0
g515
sI36
(dp526
sI366
(dp527
sI15
(dp528
sI180
(dp529
sI174
(dp530
sI120
(dp531
sI409
(dp532
sI123
(dp533
sI30
(dp534
ssI4
(dp535
I0
g516
sI352
(dp536
sI258
(dp537
sI195
(dp538
sI179
(dp539
sI263
(dp540
sI481
(dp541
sI423
(dp542
sI367
(dp543
sI144
(dp544
sI434
(dp545
sI339
(dp546
sI371
(dp547
sI449
(dp548
sI427
(dp549
sI491
(dp550
ssI5
(dp551
I0
g517
sI128
(dp552
sI132
(dp553
sI179
(dp554
sI353
(dp555
sI424
(dp556
sI426
(dp557
sI174
(dp558
sI367
(dp559
sI176
(dp560
sI264
(dp561
sI434
(dp562
sI339
(dp563
sI121
(dp564
sI149
(dp565
sI247
(dp566
sI249
(dp567
sI155
(dp568
sI30
(dp569
sI127
(dp570
ssI6
(dp571
I0
g518
ssI7
(dp572
I0
g519
sI353
(dp573
sI83
(dp574
sI146
(dp575
sI145
(dp576
sI298
(dp577
sI371
(dp578
sI141
(dp579
sI174
(dp580
sI367
(dp581
sI176
(dp582
sI177
(dp583
sI434
(dp584
sI339
(dp585
sI123
(dp586
ssI8
(dp587
I0
g520
sI83
(dp588
sI421
(dp589
sI167
(dp590
sI425
(dp591
sI298
(dp592
sI327
(dp593
sI144
(dp594
sI147
(dp595
sI279
(dp596
sI30
(dp597
sI485
(dp598
ssI9
(dp599
I0
g521
sI83
(dp600
sI132
(dp601
sI177
(dp602
sI124
(dp603
sI371
(dp604
sI238
(dp605
sI369
(dp606
sI179
(dp607
sI147
(dp608
sI246
(dp609
sI247
(dp610
sI248
(dp611
sI249
(dp612
sI250
(dp613
sI251
(dp614
sI252
(dp615
sI127
(dp616
ssI10
(dp617
I0
g522
sI149
(dp618
ssI11
(dp619
I12
(dp620
sI13
(dp621
sI14
(dp622
sI15
(dp623
sI16
(dp624
sI17
(dp625
sI18
(dp626
sI19
(dp627
sI20
(dp628
sI21
(dp629
ssI12
(dp630
I11
g620
ssI13
(dp631
I160
(dp632
sI11
g621
ssI14
(dp633
I11
g622
ssI15
(dp634
I129
(dp635
sI3
g528
sI264
(dp636
sI426
(dp637
sI11
g623
sI143
(dp638
sI123
(dp639
sI251
(dp640
sI367
(dp641
sI427
(dp642
ssI16
(dp643
I66
(dp644
sI11
g624
ssI17
(dp645
I113
(dp646
sI11
g625
sI179
(dp647
sI167
(dp648
ssI18
(dp649
I11
g626
ssI19
(dp650
I11
g627
ssI20
(dp651
I427
(dp652
sI11
g628
sI368
(dp653
sI433
(dp654
sI147
(dp655
sI121
(dp656
ssI21
(dp657
I11
g629
sI92
(dp658
ssI22
(dp659
I32
(dp660
sI23
(dp661
sI24
(dp662
sI25
(dp663
sI26
(dp664
sI27
(dp665
sI28
(dp666
sI29
(dp667
sI30
(dp668
sI31
(dp669
ssI23
(dp670
I385
(dp671
sI138
(dp672
sI22
g661
ssI24
(dp673
I236
(dp674
sI22
g662
ssI25
(dp675
I22
g663
ssI26
(dp676
I22
g664
ssI27
(dp677
I22
g665
ssI28
(dp678
I22
g666
ssI29
(dp679
I22
g667
ssI30
(dp680
I3
g534
sI5
g569
sI145
(dp681
sI8
g597
sI174
(dp682
sI424
(dp683
sI22
g668
sI121
(dp684
sI249
(dp685
sI124
(dp686
sI381
(dp687
sI126
(dp688
ssI31
(dp689
I179
(dp690
sI124
(dp691
sI22
g669
ssI32
(dp692
I321
(dp693
sI284
(dp694
sI22
g660
ssI33
(dp695
I34
(dp696
sI35
(dp697
sI36
(dp698
sI37
(dp699
sI38
(dp700
sI39
(dp701
sI40
(dp702
sI41
(dp703
sI42
(dp704
sI43
(dp705
ssI34
(dp706
I33
g696
sI135
(dp707
ssI35
(dp708
I33
g697
ssI36
(dp709
I33
g698
sI3
g526
sI264
(dp710
sI174
(dp711
sI424
(dp712
sI145
(dp713
sI179
(dp714
sI247
(dp715
sI249
(dp716
sI123
(dp717
sI126
(dp718
ssI37
(dp719
I33
g699
ssI38
(dp720
I192
(dp721
sI33
g700
sI450
(dp722
ssI39
(dp723
I33
g701
ssI40
(dp724
I33
g702
ssI41
(dp725
I33
g703
sI469
(dp726
ssI42
(dp727
I33
g704
ssI43
(dp728
I33
g705
ssI44
(dp729
I45
(dp730
sI46
(dp731
sI47
(dp732
sI48
(dp733
sI49
(dp734
sI50
(dp735
sI51
(dp736
sI52
(dp737
sI53
(dp738
sI54
(dp739
ssI45
(dp740
I44
g730
ssI46
(dp741
I44
g731
ssI47
(dp742
I44
g732
ssI48
(dp743
I44
g733
ssI49
(dp744
I338
(dp745
sI355
(dp746
sI44
g734
sI101
(dp747
ssI50
(dp748
I44
g735
ssI51
(dp749
I250
(dp750
sI44
g736
ssI52
(dp751
I44
g737
ssI53
(dp752
I44
g738
ssI54
(dp753
I44
g739
ssI55
(dp754
I64
(dp755
sI65
(dp756
sI56
(dp757
sI57
(dp758
sI58
(dp759
sI59
(dp760
sI60
(dp761
sI61
(dp762
sI62
(dp763
sI63
(dp764
ssI56
(dp765
I55
g757
ssI57
(dp766
I136
(dp767
sI55
g758
ssI58
(dp768
I55
g759
ssI59
(dp769
I55
g760
ssI60
(dp770
I55
g761
ssI61
(dp771
I55
g762
ssI62
(dp772
I252
(dp773
sI55
g763
ssI63
(dp774
I55
g764
ssI64
(dp775
I106
(dp776
sI91
(dp777
sI250
(dp778
sI102
(dp779
sI55
g755
ssI65
(dp780
I360
(dp781
sI86
(dp782
sI55
g756
ssI66
(dp783
I67
(dp784
sI68
(dp785
sI69
(dp786
sI70
(dp787
sI71
(dp788
sI72
(dp789
sI73
(dp790
sI74
(dp791
sI75
(dp792
sI16
g644
ssI67
(dp793
I472
(dp794
sI66
g784
ssI68
(dp795
I152
(dp796
sI66
g785
sI219
(dp797
sI346
(dp798
ssI69
(dp799
I257
(dp800
sI66
g786
ssI70
(dp801
I66
g787
ssI71
(dp802
I66
g788
sI499
(dp803
ssI72
(dp804
I66
g789
ssI73
(dp805
I66
g790
ssI74
(dp806
I66
g791
ssI75
(dp807
I66
g792
sI219
(dp808
sI190
(dp809
sI262
(dp810
ssI76
(dp811
I77
(dp812
sI78
(dp813
sI79
(dp814
sI80
(dp815
sI81
(dp816
sI82
(dp817
sI83
(dp818
sI84
(dp819
sI85
(dp820
sI86
(dp821
ssI77
(dp822
I76
g812
sI191
(dp823
ssI78
(dp824
I76
g813
ssI79
(dp825
I76
g814
ssI80
(dp826
I76
g815
ssI81
(dp827
I76
g816
sI335
(dp828
ssI82
(dp829
I76
g817
sI325
(dp830
ssI83
(dp831
I7
g574
sI8
g588
sI9
g600
sI426
(dp832
sI76
g818
sI148
(dp833
sI351
(dp834
ssI84
(dp835
I76
g819
ssI85
(dp836
I76
g820
ssI86
(dp837
I65
g782
sI194
(dp838
sI76
g821
ssI87
(dp839
I96
(dp840
sI97
(dp841
sI88
(dp842
sI89
(dp843
sI90
(dp844
sI91
(dp845
sI92
(dp846
sI93
(dp847
sI94
(dp848
sI95
(dp849
ssI88
(dp850
I87
g842
ssI89
(dp851
I211
(dp852
sI87
g843
ssI90
(dp853
I87
g844
ssI91
(dp854
I64
g777
sI243
(dp855
sI87
g845
ssI92
(dp856
I288
(dp857
sI21
g658
sI87
g846
ssI93
(dp858
I131
(dp859
sI87
g847
ssI94
(dp860
I87
g848
ssI95
(dp861
I87
g849
ssI96
(dp862
I87
g840
sI411
(dp863
sI327
(dp864
ssI97
(dp865
I87
g841
ssI98
(dp866
I99
(dp867
sI100
(dp868
sI101
(dp869
sI102
(dp870
sI103
(dp871
sI104
(dp872
sI105
(dp873
sI106
(dp874
sI107
(dp875
sI108
(dp876
ssI99
(dp877
I98
g867
ssI100
(dp878
I98
g868
sI331
(dp879
ssI101
(dp880
I98
g869
sI422
(dp881
sI49
g747
sI264
(dp882
sI143
(dp883
sI369
(dp884
sI147
(dp885
sI249
(dp886
sI251
(dp887
ssI102
(dp888
I64
g779
sI98
g870
sI165
(dp889
sI469
(dp890
ssI103
(dp891
I98
g871
ssI104
(dp892
I98
g872
ssI105
(dp893
I98
g873
sI363
(dp894
ssI106
(dp895
I64
g776
sI98
g874
ssI107
(dp896
I98
g875
ssI108
(dp897
I448
(dp898
sI98
g876
sI324
(dp899
sI165
(dp900
sI390
(dp901
sI365
(dp902
ssI109
(dp903
I110
(dp904
sI111
(dp905
sI112
(dp906
sI113
(dp907
sI114
(dp908
sI115
(dp909
sI116
(dp910
sI117
(dp911
sI118
(dp912
sI119
(dp913
ssI110
(dp914
I109
g904
sI133
(dp915
ssI111
(dp916
I109
g905
ssI112
(dp917
I109
g906
ssI113
(dp918
I144
(dp919
sI17
g646
sI424
(dp920
sI109
g907
sI143
(dp921
sI368
(dp922
sI145
(dp923
sI179
(dp924
ssI114
(dp925
I250
(dp926
sI109
g908
ssI115
(dp927
I109
g909
ssI116
(dp928
I109
g910
ssI117
(dp929
I355
(dp930
sI109
g911
ssI118
(dp931
I109
g912
ssI119
(dp932
I109
g913
ssI120
(dp933
I128
(dp934
sI129
(dp935
sI3
g531
sI121
(dp936
sI122
(dp937
sI123
(dp938
sI124
(dp939
sI125
(dp940
sI126
(dp941
sI127
(dp942
ssI121
(dp943
I485
(dp944
sI167
(dp945
sI425
(dp946
sI298
(dp947
sI144
(dp948
sI351
(dp949
sI148
(dp950
sI120
g936
sI20
g656
sI314
(dp951
sI155
(dp952
sI378
(dp953
sI30
g684
sI5
g564
ssI122
(dp954
I353
(dp955
sI421
(dp956
sI391
(dp957
sI425
(dp958
sI174
(dp959
sI143
(dp960
sI144
(dp961
sI401
(dp962
sI148
(dp963
sI343
(dp964
sI120
g937
sI378
(dp965
sI124
(dp966
ssI123
(dp967
I353
(dp968
sI3
g533
sI36
g717
sI485
(dp969
sI390
(dp970
sI7
g586
sI124
(dp971
sI423
(dp972
sI143
(dp973
sI367
(dp974
sI145
(dp975
sI146
(dp976
sI179
(dp977
sI148
(dp978
sI147
(dp979
sI120
g938
sI249
(dp980
sI378
(dp981
sI15
g639
sI252
(dp982
sI421
(dp983
ssI124
(dp984
I481
(dp985
sI195
(dp986
sI390
(dp987
sI391
(dp988
sI9
g603
sI427
(dp989
sI173
(dp990
sI366
(dp991
sI143
(dp992
sI176
(dp993
sI145
(dp994
sI147
(dp995
sI148
(dp996
sI401
(dp997
sI120
g939
sI122
g966
sI123
g971
sI248
(dp998
sI30
g686
sI31
g691
ssI125
(dp999
I132
(dp1000
sI421
(dp1001
sI144
(dp1002
sI179
(dp1003
sI120
g940
sI222
(dp1004
ssI126
(dp1005
I449
(dp1006
sI36
g718
sI263
(dp1007
sI174
(dp1008
sI369
(dp1009
sI120
g941
sI345
(dp1010
sI155
(dp1011
sI30
g688
sI127
(dp1012
ssI127
(dp1013
I353
(dp1014
sI427
(dp1015
sI5
g570
sI423
(dp1016
sI9
g616
sI311
(dp1017
sI172
(dp1018
sI177
(dp1019
sI175
(dp1020
sI144
(dp1021
sI401
(dp1022
sI434
(dp1023
sI435
(dp1024
sI343
(dp1025
sI120
g942
sI377
(dp1026
sI378
(dp1027
sI126
g1012
sI247
(dp1028
ssI128
(dp1029
I448
(dp1030
sI5
g552
sI425
(dp1031
sI172
(dp1032
sI173
(dp1033
sI143
(dp1034
sI147
(dp1035
sI149
(dp1036
sI120
g934
sI155
(dp1037
ssI129
(dp1038
I449
(dp1039
sI155
(dp1040
sI133
(dp1041
sI167
(dp1042
sI172
(dp1043
sI15
g635
sI120
g935
sI377
(dp1044
sI219
(dp1045
ssI130
(dp1046
I131
(dp1047
sI132
(dp1048
sI133
(dp1049
sI134
(dp1050
sI135
(dp1051
sI136
(dp1052
sI137
(dp1053
sI138
(dp1054
sI139
(dp1055
sI140
(dp1056
ssI131
(dp1057
I130
g1047
sI93
g859
ssI132
(dp1058
I353
(dp1059
sI130
g1048
sI5
g553
sI135
(dp1060
sI9
g601
sI147
(dp1061
sI250
(dp1062
sI125
g1000
ssI133
(dp1063
I129
g1041
sI130
g1049
sI253
(dp1064
sI110
g915
ssI134
(dp1065
I130
g1050
sI285
(dp1066
ssI135
(dp1067
I130
g1051
sI132
g1060
sI34
g707
ssI136
(dp1068
I57
g767
sI130
g1052
sI470
(dp1069
ssI137
(dp1070
I130
g1053
ssI138
(dp1071
I130
g1054
sI446
(dp1072
sI23
g672
ssI139
(dp1073
I130
g1055
sI194
(dp1074
ssI140
(dp1075
I130
g1056
ssI141
(dp1076
I7
g579
sI142
(dp1077
sI143
(dp1078
sI144
(dp1079
sI145
(dp1080
sI146
(dp1081
sI147
(dp1082
sI148
(dp1083
sI149
(dp1084
sI150
(dp1085
sI335
(dp1086
ssI142
(dp1087
I141
g1077
sI174
(dp1088
ssI143
(dp1089
I128
g1034
sI195
(dp1090
sI101
g883
sI113
g921
sI426
(dp1091
sI427
(dp1092
sI141
g1078
sI238
(dp1093
sI15
g638
sI177
(dp1094
sI146
(dp1095
sI123
g973
sI246
(dp1096
sI311
(dp1097
sI249
(dp1098
sI122
g960
sI367
(dp1099
sI124
g992
sI378
(dp1100
ssI144
(dp1101
I4
g544
sI8
g594
sI298
(dp1102
sI141
g1079
sI173
(dp1103
sI113
g919
sI146
(dp1104
sI246
(dp1105
sI121
g948
sI249
(dp1106
sI122
g961
sI367
(dp1107
sI125
g1002
sI264
(dp1108
sI127
g1021
ssI145
(dp1109
I449
(dp1110
sI36
g713
sI390
(dp1111
sI7
g576
sI265
(dp1112
sI172
(dp1113
sI141
g1080
sI174
(dp1114
sI367
(dp1115
sI177
(dp1116
sI434
(dp1117
sI113
g923
sI246
(dp1118
sI123
g975
sI124
g994
sI369
(dp1119
sI30
g681
sI149
(dp1120
ssI146
(dp1121
I352
(dp1122
sI391
(dp1123
sI263
(dp1124
sI7
g575
sI141
g1081
sI238
(dp1125
sI143
g1095
sI144
g1104
sI401
(dp1126
sI409
(dp1127
sI123
g976
sI285
(dp1128
ssI147
(dp1129
I128
g1035
sI449
(dp1130
sI132
g1061
sI101
g885
sI263
(dp1131
sI424
(dp1132
sI9
g608
sI427
(dp1133
sI141
g1082
sI366
(dp1134
sI367
(dp1135
sI176
(dp1136
sI8
g595
sI20
g655
sI177
(dp1137
sI425
(dp1138
sI409
(dp1139
sI314
(dp1140
sI123
g979
sI124
g995
sI264
(dp1141
ssI148
(dp1142
I448
(dp1143
sI83
g833
sI485
(dp1144
sI422
(dp1145
sI339
(dp1146
sI141
g1083
sI367
(dp1147
sI176
(dp1148
sI434
(dp1149
sI371
(dp1150
sI149
(dp1151
sI246
(dp1152
sI248
(dp1153
sI121
g950
sI122
g963
sI123
g978
sI124
g996
ssI149
(dp1154
I128
g1036
sI353
(dp1155
sI5
g565
sI145
g1120
sI265
(dp1156
sI10
g618
sI141
g1084
sI238
(dp1157
sI177
(dp1158
sI148
g1151
sI345
(dp1159
sI250
(dp1160
sI252
(dp1161
ssI150
(dp1162
I141
g1085
ssI151
(dp1163
I160
(dp1164
sI161
(dp1165
sI152
(dp1166
sI153
(dp1167
sI154
(dp1168
sI155
(dp1169
sI156
(dp1170
sI157
(dp1171
sI158
(dp1172
sI159
(dp1173
ssI152
(dp1174
I68
g796
sI151
g1166
ssI153
(dp1175
I151
g1167
ssI154
(dp1176
I151
g1168
ssI155
(dp1177
I128
g1037
sI129
g1040
sI5
g568
sI353
(dp1178
sI238
(dp1179
sI175
(dp1180
sI151
g1169
sI121
g952
sI126
g1011
ssI156
(dp1181
I151
g1170
sI438
(dp1182
sI415
(dp1183
ssI157
(dp1184
I151
g1171
ssI158
(dp1185
I411
(dp1186
sI151
g1172
ssI159
(dp1187
I151
g1173
ssI160
(dp1188
I13
g632
sI151
g1164
ssI161
(dp1189
I151
g1165
ssI162
(dp1190
I163
(dp1191
sI164
(dp1192
sI165
(dp1193
sI166
(dp1194
sI167
(dp1195
sI168
(dp1196
sI169
(dp1197
sI170
(dp1198
sI171
(dp1199
sI172
(dp1200
ssI163
(dp1201
I162
g1191
ssI164
(dp1202
I496
(dp1203
sI162
g1192
ssI165
(dp1204
I162
g1193
sI108
g900
sI102
g889
ssI166
(dp1205
I162
g1194
ssI167
(dp1206
I129
g1042
sI162
g1195
sI17
g648
sI353
(dp1207
sI424
(dp1208
sI266
(dp1209
sI238
(dp1210
sI175
(dp1211
sI8
g590
sI121
g945
ssI168
(dp1212
I162
g1196
sI226
(dp1213
ssI169
(dp1214
I162
g1197
ssI170
(dp1215
I162
g1198
ssI171
(dp1216
I162
g1199
ssI172
(dp1217
I128
g1032
sI129
g1043
sI162
g1200
sI353
(dp1218
sI145
g1113
sI174
(dp1219
sI177
(dp1220
sI247
(dp1221
sI127
g1018
ssI173
(dp1222
I128
g1033
sI144
g1103
sI174
(dp1223
sI175
(dp1224
sI176
(dp1225
sI177
(dp1226
sI178
(dp1227
sI179
(dp1228
sI180
(dp1229
sI124
g990
ssI174
(dp1230
I3
g530
sI36
g711
sI5
g558
sI7
g580
sI145
g1114
sI30
g682
sI427
(dp1231
sI172
g1219
sI173
g1223
sI142
g1088
sI369
(dp1232
sI238
(dp1233
sI249
(dp1234
sI122
g959
sI126
g1008
ssI175
(dp1235
I167
g1211
sI299
(dp1236
sI173
g1224
sI409
(dp1237
sI155
g1180
sI127
g1020
ssI176
(dp1238
I352
(dp1239
sI195
(dp1240
sI228
(dp1241
sI5
g560
sI7
g582
sI173
g1225
sI398
(dp1242
sI369
(dp1243
sI147
g1136
sI148
g1148
sI343
(dp1244
sI248
(dp1245
sI377
(dp1246
sI124
g993
sI351
(dp1247
ssI177
(dp1248
I7
g583
sI9
g602
sI266
(dp1249
sI172
g1220
sI173
g1226
sI366
(dp1250
sI143
g1094
sI368
(dp1251
sI145
g1116
sI147
g1137
sI149
g1158
sI425
(dp1252
sI345
(dp1253
sI314
(dp1254
sI367
(dp1255
sI127
g1019
ssI178
(dp1256
I256
(dp1257
sI173
g1227
sI255
(dp1258
ssI179
(dp1259
I36
g714
sI485
(dp1260
sI17
g647
sI31
g690
sI9
g607
sI173
g1228
sI113
g924
sI345
(dp1261
sI250
(dp1262
sI123
g977
sI125
g1003
sI4
g539
sI5
g554
ssI180
(dp1263
I3
g529
sI173
g1229
ssI181
(dp1264
I182
(dp1265
sI183
(dp1266
sI184
(dp1267
sI185
(dp1268
sI186
(dp1269
sI187
(dp1270
sI188
(dp1271
sI189
(dp1272
sI190
(dp1273
sI191
(dp1274
ssI182
(dp1275
I228
(dp1276
sI181
g1265
ssI183
(dp1277
I181
g1266
ssI184
(dp1278
I181
g1267
ssI185
(dp1279
I181
g1268
ssI186
(dp1280
I181
g1269
ssI187
(dp1281
I181
g1270
ssI188
(dp1282
I181
g1271
ssI189
(dp1283
I181
g1272
ssI190
(dp1284
I75
g809
sI181
g1273
sI270
(dp1285
ssI191
(dp1286
I77
g823
sI181
g1274
ssI192
(dp1287
I193
(dp1288
sI194
(dp1289
sI195
(dp1290
sI196
(dp1291
sI38
g721
ssI193
(dp1292
I192
g1288
ssI194
(dp1293
I192
g1289
sI139
g1074
sI86
g838
ssI195
(dp1294
I192
g1290
sI176
g1240
sI4
g538
sI422
(dp1295
sI143
g1090
sI368
(dp1296
sI124
g986
ssI196
(dp1297
I192
g1291
sI424
(dp1298
sI246
(dp1299
ssI197
(dp1300
I198
(dp1301
sI199
(dp1302
sI200
(dp1303
sI201
(dp1304
sI202
(dp1305
sI203
(dp1306
sI204
(dp1307
sI205
(dp1308
sI206
(dp1309
sI207
(dp1310
ssI198
(dp1311
I412
(dp1312
sI197
g1301
ssI199
(dp1313
I225
(dp1314
sI197
g1302
ssI200
(dp1315
I197
g1303
ssI201
(dp1316
I197
g1304
ssI202
(dp1317
I197
g1305
ssI203
(dp1318
I450
(dp1319
sI197
g1306
ssI204
(dp1320
I197
g1307
ssI205
(dp1321
I197
g1308
ssI206
(dp1322
I197
g1309
ssI207
(dp1323
I197
g1310
ssI208
(dp1324
I209
(dp1325
sI210
(dp1326
sI211
(dp1327
sI212
(dp1328
sI213
(dp1329
sI214
(dp1330
sI215
(dp1331
sI216
(dp1332
sI217
(dp1333
ssI209
(dp1334
I208
g1325
sI288
(dp1335
ssI210
(dp1336
I208
g1326
ssI211
(dp1337
I208
g1327
sI89
g852
sI494
(dp1338
ssI212
(dp1339
I208
g1328
ssI213
(dp1340
I208
g1329
ssI214
(dp1341
I208
g1330
ssI215
(dp1342
I208
g1331
ssI216
(dp1343
I208
g1332
ssI217
(dp1344
I208
g1333
ssI218
(dp1345
I224
(dp1346
sI225
(dp1347
sI226
(dp1348
sI227
(dp1349
sI220
(dp1350
sI300
(dp1351
sI219
(dp1352
sI380
(dp1353
sI221
(dp1354
sI222
(dp1355
sI223
(dp1356
ssI219
(dp1357
I129
g1045
sI218
g1352
sI75
g808
sI68
g797
sI253
(dp1358
ssI220
(dp1359
I218
g1350
ssI221
(dp1360
I225
(dp1361
sI218
g1354
ssI222
(dp1362
I218
g1355
sI125
g1004
ssI223
(dp1363
I218
g1356
ssI224
(dp1364
I489
(dp1365
sI218
g1346
ssI225
(dp1366
I218
g1347
sI221
g1361
sI199
g1314
ssI226
(dp1367
I168
g1213
sI218
g1348
sI314
(dp1368
ssI227
(dp1369
I218
g1349
ssI228
(dp1370
I229
(dp1371
sI230
(dp1372
sI231
(dp1373
sI232
(dp1374
sI233
(dp1375
sI234
(dp1376
sI235
(dp1377
sI176
g1241
sI182
g1276
ssI229
(dp1378
I228
g1371
ssI230
(dp1379
I228
g1372
ssI231
(dp1380
I228
g1373
sI372
(dp1381
ssI232
(dp1382
I228
g1374
ssI233
(dp1383
I228
g1375
ssI234
(dp1384
I228
g1376
ssI235
(dp1385
I228
g1377
ssI236
(dp1386
I237
(dp1387
sI238
(dp1388
sI239
(dp1389
sI240
(dp1390
sI241
(dp1391
sI242
(dp1392
sI243
(dp1393
sI244
(dp1394
sI245
(dp1395
sI24
g674
ssI237
(dp1396
I236
g1387
ssI238
(dp1397
I449
(dp1398
sI167
g1210
sI9
g605
sI236
g1388
sI174
g1233
sI143
g1093
sI146
g1125
sI149
g1157
sI346
(dp1399
sI155
g1179
ssI239
(dp1400
I236
g1389
ssI240
(dp1401
I236
g1390
ssI241
(dp1402
I236
g1391
ssI242
(dp1403
I236
g1392
ssI243
(dp1404
I91
g855
sI236
g1393
ssI244
(dp1405
I338
(dp1406
sI236
g1394
ssI245
(dp1407
I236
g1395
ssI246
(dp1408
I196
g1299
sI145
g1118
sI9
g609
sI143
g1096
sI144
g1105
sI369
(dp1409
sI148
g1152
ssI247
(dp1410
I36
g715
sI5
g566
sI9
g610
sI172
g1221
sI401
(dp1411
sI409
(dp1412
sI127
g1028
ssI248
(dp1413
I326
(dp1414
sI391
(dp1415
sI9
g611
sI176
g1245
sI148
g1153
sI345
(dp1416
sI409
(dp1417
sI314
(dp1418
sI124
g998
ssI249
(dp1419
I352
(dp1420
sI353
(dp1421
sI123
g980
sI36
g716
sI5
g567
sI264
(dp1422
sI9
g612
sI174
g1234
sI143
g1098
sI144
g1106
sI351
(dp1423
sI343
(dp1424
sI250
(dp1425
sI251
(dp1426
sI101
g886
sI314
(dp1427
sI30
g685
sI485
(dp1428
ssI250
(dp1429
I64
g778
sI132
g1062
sI179
g1262
sI9
g613
sI114
g926
sI51
g750
sI149
g1160
sI249
g1425
ssI251
(dp1430
I353
(dp1431
sI343
(dp1432
sI101
g887
sI425
(dp1433
sI9
g614
sI427
(dp1434
sI366
(dp1435
sI15
g640
sI371
(dp1436
sI311
(dp1437
sI249
g1426
sI378
(dp1438
sI485
(dp1439
ssI252
(dp1440
I9
g615
sI298
(dp1441
sI149
g1161
sI311
(dp1442
sI314
(dp1443
sI123
g982
sI62
g773
ssI253
(dp1444
I256
(dp1445
sI257
(dp1446
sI258
(dp1447
sI259
(dp1448
sI260
(dp1449
sI133
g1064
sI262
(dp1450
sI255
(dp1451
sI219
g1358
sI254
(dp1452
sI261
(dp1453
ssI254
(dp1454
I253
g1452
ssI255
(dp1455
I178
g1258
sI253
g1451
ssI256
(dp1456
I178
g1257
sI253
g1445
ssI257
(dp1457
I69
g800
sI253
g1446
ssI258
(dp1458
I4
g537
sI253
g1447
ssI259
(dp1459
I253
g1448
ssI260
(dp1460
I253
g1449
ssI261
(dp1461
I440
(dp1462
sI253
g1453
sI390
(dp1463
ssI262
(dp1464
I75
g810
sI253
g1450
ssI263
(dp1465
I4
g540
sI264
(dp1466
sI265
(dp1467
sI266
(dp1468
sI267
(dp1469
sI268
(dp1470
sI269
(dp1471
sI146
g1124
sI147
g1131
sI126
g1007
ssI264
(dp1472
I36
g710
sI421
(dp1473
sI263
g1466
sI339
(dp1474
sI366
(dp1475
sI15
g636
sI144
g1108
sI369
(dp1476
sI371
(dp1477
sI147
g1141
sI401
(dp1478
sI311
(dp1479
sI249
g1422
sI314
(dp1480
sI367
(dp1481
sI5
g561
sI101
g882
ssI265
(dp1482
I481
(dp1483
sI263
g1467
sI427
(dp1484
sI145
g1112
sI371
(dp1485
sI149
g1156
ssI266
(dp1486
I352
(dp1487
sI449
(dp1488
sI167
g1209
sI177
g1249
sI298
(dp1489
sI263
g1468
sI366
(dp1490
sI367
(dp1491
sI369
(dp1492
sI434
(dp1493
sI345
(dp1494
sI409
(dp1495
sI314
(dp1496
ssI267
(dp1497
I414
(dp1498
sI263
g1469
ssI268
(dp1499
I334
(dp1500
sI263
g1470
ssI269
(dp1501
I263
g1471
ssI270
(dp1502
I271
(dp1503
sI272
(dp1504
sI273
(dp1505
sI274
(dp1506
sI275
(dp1507
sI276
(dp1508
sI277
(dp1509
sI278
(dp1510
sI190
g1285
ssI271
(dp1511
I270
g1503
ssI272
(dp1512
I276
(dp1513
sI270
g1504
ssI273
(dp1514
I270
g1505
ssI274
(dp1515
I276
(dp1516
sI270
g1506
ssI275
(dp1517
I270
g1507
ssI276
(dp1518
I272
g1513
sI274
g1516
sI270
g1508
ssI277
(dp1519
I270
g1509
ssI278
(dp1520
I270
g1510
ssI279
(dp1521
I288
(dp1522
sI8
g596
sI285
(dp1523
sI280
(dp1524
sI281
(dp1525
sI282
(dp1526
sI283
(dp1527
sI284
(dp1528
sI381
(dp1529
sI286
(dp1530
sI287
(dp1531
ssI280
(dp1532
I318
(dp1533
sI279
g1524
ssI281
(dp1534
I279
g1525
ssI282
(dp1535
I279
g1526
ssI283
(dp1536
I279
g1527
ssI284
(dp1537
I32
g694
sI279
g1528
ssI285
(dp1538
I146
g1128
sI279
g1523
sI134
g1066
sI311
(dp1539
ssI286
(dp1540
I279
g1530
ssI287
(dp1541
I279
g1531
ssI288
(dp1542
I209
g1335
sI92
g857
sI279
g1522
ssI289
(dp1543
I290
(dp1544
sI291
(dp1545
sI292
(dp1546
sI293
(dp1547
sI294
(dp1548
sI295
(dp1549
sI296
(dp1550
sI297
(dp1551
sI298
(dp1552
sI299
(dp1553
ssI290
(dp1554
I289
g1544
ssI291
(dp1555
I289
g1545
ssI292
(dp1556
I289
g1546
ssI293
(dp1557
I289
g1547
ssI294
(dp1558
I289
g1548
ssI295
(dp1559
I289
g1549
sI372
(dp1560
ssI296
(dp1561
I289
g1550
ssI297
(dp1562
I289
g1551
ssI298
(dp1563
I352
(dp1564
sI289
g1552
sI7
g577
sI8
g592
sI266
g1489
sI144
g1102
sI424
(dp1565
sI121
g947
sI252
g1441
ssI299
(dp1566
I289
g1553
sI378
(dp1567
sI443
(dp1568
sI175
g1236
ssI300
(dp1569
I301
(dp1570
sI302
(dp1571
sI303
(dp1572
sI304
(dp1573
sI305
(dp1574
sI306
(dp1575
sI307
(dp1576
sI308
(dp1577
sI309
(dp1578
sI218
g1351
ssI301
(dp1579
I300
g1570
ssI302
(dp1580
I300
g1571
ssI303
(dp1581
I300
g1572
sI309
(dp1582
sI341
(dp1583
ssI304
(dp1584
I300
g1573
ssI305
(dp1585
I300
g1574
ssI306
(dp1586
I300
g1575
ssI307
(dp1587
I300
g1576
ssI308
(dp1588
I300
g1577
ssI309
(dp1589
I300
g1578
sI303
g1582
ssI310
(dp1590
I320
(dp1591
sI311
(dp1592
sI312
(dp1593
sI313
(dp1594
sI314
(dp1595
sI315
(dp1596
sI316
(dp1597
sI317
(dp1598
sI318
(dp1599
sI319
(dp1600
ssI311
(dp1601
I264
g1479
sI143
g1097
sI369
(dp1602
sI310
g1592
sI251
g1437
sI252
g1442
sI285
g1539
sI127
g1017
ssI312
(dp1603
I310
g1593
ssI313
(dp1604
I310
g1594
ssI314
(dp1605
I385
(dp1606
sI226
g1368
sI423
(dp1607
sI264
g1480
sI266
g1496
sI177
g1254
sI147
g1140
sI310
g1595
sI249
g1427
sI248
g1418
sI121
g951
sI252
g1443
ssI315
(dp1608
I310
g1596
ssI316
(dp1609
I310
g1597
ssI317
(dp1610
I310
g1598
ssI318
(dp1611
I280
g1533
sI310
g1599
ssI319
(dp1612
I310
g1600
ssI320
(dp1613
I310
g1591
ssI321
(dp1614
I32
g693
sI322
(dp1615
sI323
(dp1616
sI324
(dp1617
sI325
(dp1618
sI326
(dp1619
sI327
(dp1620
sI328
(dp1621
sI329
(dp1622
sI330
(dp1623
ssI322
(dp1624
I321
g1615
ssI323
(dp1625
I321
g1616
ssI324
(dp1626
I321
g1617
sI108
g899
ssI325
(dp1627
I321
g1618
sI82
g830
ssI326
(dp1628
I248
g1414
sI321
g1619
ssI327
(dp1629
I96
g864
sI321
g1620
sI8
g593
ssI328
(dp1630
I321
g1621
ssI329
(dp1631
I321
g1622
sI350
(dp1632
ssI330
(dp1633
I321
g1623
ssI331
(dp1634
I100
g879
sI332
(dp1635
sI333
(dp1636
sI334
(dp1637
sI335
(dp1638
sI336
(dp1639
sI337
(dp1640
sI338
(dp1641
sI339
(dp1642
ssI332
(dp1643
I331
g1635
ssI333
(dp1644
I331
g1636
ssI334
(dp1645
I376
(dp1646
sI331
g1637
sI268
g1500
ssI335
(dp1647
I81
g828
sI331
g1638
sI141
g1086
sI494
(dp1648
ssI336
(dp1649
I331
g1639
ssI337
(dp1650
I331
g1640
sI484
(dp1651
ssI338
(dp1652
I49
g745
sI331
g1641
sI244
g1406
ssI339
(dp1653
I4
g546
sI5
g563
sI7
g585
sI264
g1474
sI331
g1642
sI364
(dp1654
sI148
g1146
ssI340
(dp1655
I341
(dp1656
sI342
(dp1657
sI343
(dp1658
sI344
(dp1659
sI345
(dp1660
sI346
(dp1661
sI347
(dp1662
sI348
(dp1663
sI349
(dp1664
sI350
(dp1665
ssI341
(dp1666
I370
(dp1667
sI340
g1656
sI303
g1583
ssI342
(dp1668
I340
g1657
ssI343
(dp1669
I176
g1244
sI340
g1658
sI249
g1424
sI122
g964
sI251
g1432
sI346
(dp1670
sI127
g1025
ssI344
(dp1671
I340
g1659
ssI345
(dp1672
I424
(dp1673
sI266
g1494
sI177
g1253
sI179
g1261
sI340
g1660
sI149
g1159
sI248
g1416
sI126
g1010
ssI346
(dp1674
I68
g798
sI340
g1661
sI238
g1399
sI343
g1670
ssI347
(dp1675
I472
(dp1676
sI340
g1662
ssI348
(dp1677
I340
g1663
ssI349
(dp1678
I473
(dp1679
sI340
g1664
ssI350
(dp1680
I432
(dp1681
sI329
g1632
sI378
(dp1682
sI340
g1665
ssI351
(dp1683
I352
(dp1684
sI353
(dp1685
sI354
(dp1686
sI355
(dp1687
sI356
(dp1688
sI357
(dp1689
sI358
(dp1690
sI359
(dp1691
sI176
g1247
sI83
g834
sI249
g1423
sI121
g949
ssI352
(dp1692
I176
g1239
sI4
g536
sI421
(dp1693
sI422
(dp1694
sI266
g1487
sI367
(dp1695
sI368
(dp1696
sI146
g1122
sI249
g1420
sI298
g1564
sI351
g1684
ssI353
(dp1697
I481
(dp1698
sI123
g968
sI132
g1059
sI5
g555
sI391
(dp1699
sI167
g1207
sI172
g1218
sI367
(dp1700
sI368
(dp1701
sI351
g1685
sI155
g1178
sI149
g1155
sI7
g573
sI249
g1421
sI122
g955
sI251
g1431
sI427
(dp1702
sI485
(dp1703
sI127
g1014
ssI354
(dp1704
I351
g1686
ssI355
(dp1705
I49
g746
sI117
g930
sI351
g1687
ssI356
(dp1706
I490
(dp1707
sI351
g1688
ssI357
(dp1708
I351
g1689
ssI358
(dp1709
I351
g1690
ssI359
(dp1710
I351
g1691
ssI360
(dp1711
I65
g781
sI361
(dp1712
sI362
(dp1713
sI363
(dp1714
sI364
(dp1715
sI365
(dp1716
ssI361
(dp1717
I360
g1712
ssI362
(dp1718
I360
g1713
ssI363
(dp1719
I360
g1714
sI105
g894
ssI364
(dp1720
I360
g1715
sI339
g1654
ssI365
(dp1721
I360
g1716
sI108
g902
ssI366
(dp1722
I3
g527
sI177
g1250
sI264
g1475
sI266
g1490
sI367
(dp1723
sI368
(dp1724
sI369
(dp1725
sI147
g1134
sI251
g1435
sI124
g991
ssI367
(dp1726
I352
g1695
sI353
g1700
sI123
g974
sI4
g543
sI5
g559
sI7
g581
sI145
g1115
sI266
g1491
sI366
g1723
sI15
g641
sI144
g1107
sI177
g1255
sI371
(dp1727
sI148
g1147
sI147
g1135
sI143
g1099
sI264
g1481
ssI368
(dp1728
I352
g1696
sI353
g1701
sI195
g1296
sI113
g922
sI366
g1724
sI177
g1251
sI449
(dp1729
sI481
(dp1730
sI20
g653
sI409
(dp1731
ssI369
(dp1732
I481
(dp1733
sI101
g884
sI422
(dp1734
sI264
g1476
sI9
g606
sI266
g1492
sI427
(dp1735
sI174
g1232
sI176
g1243
sI145
g1119
sI366
g1725
sI246
g1409
sI311
g1602
sI377
(dp1736
sI126
g1009
sI485
(dp1737
ssI370
(dp1738
I371
(dp1739
sI372
(dp1740
sI341
g1667
sI374
(dp1741
sI375
(dp1742
sI376
(dp1743
sI377
(dp1744
sI378
(dp1745
sI379
(dp1746
sI380
(dp1747
sI373
(dp1748
ssI371
(dp1749
I4
g547
sI422
(dp1750
sI7
g578
sI264
g1477
sI9
g604
sI367
g1727
sI370
g1739
sI148
g1150
sI265
g1485
sI251
g1436
ssI372
(dp1751
I370
g1740
sI295
g1560
sI231
g1381
ssI373
(dp1752
I370
g1748
ssI374
(dp1753
I370
g1741
ssI375
(dp1754
I370
g1742
ssI376
(dp1755
I370
g1743
sI334
g1646
ssI377
(dp1756
I129
g1044
sI423
(dp1757
sI176
g1246
sI369
g1736
sI370
g1744
sI127
g1026
ssI378
(dp1758
I251
g1438
sI390
(dp1759
sI299
g1567
sI143
g1100
sI370
g1745
sI121
g953
sI122
g965
sI123
g981
sI350
g1682
sI127
g1027
ssI379
(dp1760
I370
g1746
ssI380
(dp1761
I370
g1747
sI218
g1353
ssI381
(dp1762
I384
(dp1763
sI385
(dp1764
sI386
(dp1765
sI387
(dp1766
sI388
(dp1767
sI389
(dp1768
sI382
(dp1769
sI279
g1529
sI30
g687
sI383
(dp1770
ssI382
(dp1771
I480
(dp1772
sI381
g1769
ssI383
(dp1773
I381
g1770
ssI384
(dp1774
I381
g1763
ssI385
(dp1775
I314
g1606
sI381
g1764
sI23
g671
ssI386
(dp1776
I381
g1765
sI389
(dp1777
ssI387
(dp1778
I381
g1766
ssI388
(dp1779
I381
g1767
ssI389
(dp1780
I386
g1777
sI381
g1768
ssI390
(dp1781
I145
g1111
sI261
g1463
sI391
(dp1782
sI392
(dp1783
sI393
(dp1784
sI394
(dp1785
sI395
(dp1786
sI396
(dp1787
sI397
(dp1788
sI398
(dp1789
sI108
g901
sI423
(dp1790
sI123
g970
sI124
g987
sI378
g1759
sI421
(dp1791
ssI391
(dp1792
I353
g1699
sI422
(dp1793
sI390
g1782
sI427
(dp1794
sI146
g1123
sI248
g1415
sI122
g957
sI124
g988
ssI392
(dp1795
I390
g1783
ssI393
(dp1796
I390
g1784
ssI394
(dp1797
I390
g1785
ssI395
(dp1798
I390
g1786
ssI396
(dp1799
I390
g1787
ssI397
(dp1800
I390
g1788
ssI398
(dp1801
I176
g1242
sI390
g1789
ssI399
(dp1802
I400
(dp1803
sI401
(dp1804
sI402
(dp1805
sI403
(dp1806
sI404
(dp1807
sI405
(dp1808
sI406
(dp1809
sI407
(dp1810
sI408
(dp1811
sI409
(dp1812
ssI400
(dp1813
I399
g1803
ssI401
(dp1814
I422
(dp1815
sI423
(dp1816
sI264
g1478
sI427
(dp1817
sI399
g1804
sI146
g1126
sI247
g1411
sI122
g962
sI124
g997
sI127
g1022
ssI402
(dp1818
I399
g1805
ssI403
(dp1819
I399
g1806
ssI404
(dp1820
I399
g1807
ssI405
(dp1821
I399
g1808
ssI406
(dp1822
I399
g1809
ssI407
(dp1823
I412
(dp1824
sI399
g1810
ssI408
(dp1825
I399
g1811
ssI409
(dp1826
I3
g532
sI422
(dp1827
sI266
g1495
sI175
g1237
sI368
g1731
sI146
g1127
sI147
g1139
sI247
g1412
sI248
g1417
sI399
g1812
ssI410
(dp1828
I416
(dp1829
sI417
(dp1830
sI418
(dp1831
sI419
(dp1832
sI420
(dp1833
sI411
(dp1834
sI412
(dp1835
sI413
(dp1836
sI414
(dp1837
sI415
(dp1838
ssI411
(dp1839
I96
g863
sI410
g1834
sI158
g1186
ssI412
(dp1840
I410
g1835
sI198
g1312
sI407
g1824
ssI413
(dp1841
I410
g1836
ssI414
(dp1842
I410
g1837
sI267
g1498
ssI415
(dp1843
I410
g1838
sI427
(dp1844
sI156
g1183
ssI416
(dp1845
I410
g1829
ssI417
(dp1846
I410
g1830
ssI418
(dp1847
I496
(dp1848
sI410
g1831
ssI419
(dp1849
I410
g1832
ssI420
(dp1850
I410
g1833
ssI421
(dp1851
I352
g1693
sI422
(dp1852
sI390
g1791
sI423
(dp1853
sI424
(dp1854
sI8
g589
sI122
g956
sI123
g983
sI125
g1001
sI264
g1473
ssI422
(dp1855
I352
g1694
sI195
g1295
sI421
g1852
sI391
g1793
sI425
(dp1856
sI401
g1815
sI369
g1734
sI371
g1750
sI148
g1145
sI409
g1827
sI101
g881
ssI423
(dp1857
I4
g542
sI421
g1853
sI390
g1790
sI427
(dp1858
sI401
g1816
sI377
g1757
sI314
g1607
sI123
g972
sI127
g1016
ssI424
(dp1859
I36
g712
sI5
g556
sI167
g1208
sI298
g1565
sI113
g920
sI147
g1132
sI196
g1298
sI345
g1673
sI30
g683
sI421
g1854
ssI425
(dp1860
I128
g1031
sI422
g1856
sI8
g591
sI426
(dp1861
sI427
(dp1862
sI177
g1252
sI147
g1138
sI121
g946
sI122
g958
sI251
g1433
ssI426
(dp1863
I425
g1861
sI83
g832
sI143
g1091
sI5
g557
sI15
g637
ssI427
(dp1864
I353
g1702
sI4
g549
sI391
g1794
sI15
g642
sI265
g1484
sI423
g1858
sI369
g1735
sI174
g1231
sI143
g1092
sI401
g1817
sI147
g1133
sI20
g652
sI425
g1862
sI127
g1015
sI251
g1434
sI124
g989
sI415
g1844
ssI428
(dp1865
I429
(dp1866
sI430
(dp1867
sI431
(dp1868
sI432
(dp1869
sI433
(dp1870
sI434
(dp1871
sI435
(dp1872
sI436
(dp1873
sI437
(dp1874
sI438
(dp1875
ssI429
(dp1876
I428
g1866
ssI430
(dp1877
I428
g1867
ssI431
(dp1878
I428
g1868
sI487
(dp1879
ssI432
(dp1880
I428
g1869
sI350
g1681
ssI433
(dp1881
I428
g1870
sI20
g654
ssI434
(dp1882
I4
g545
sI5
g562
sI7
g584
sI266
g1493
sI428
g1871
sI145
g1117
sI148
g1149
sI127
g1023
ssI435
(dp1883
I428
g1872
sI127
g1024
ssI436
(dp1884
I428
g1873
ssI437
(dp1885
I428
g1874
ssI438
(dp1886
I456
(dp1887
sI428
g1875
sI156
g1182
ssI439
(dp1888
I448
(dp1889
sI449
(dp1890
sI440
(dp1891
sI441
(dp1892
sI442
(dp1893
sI443
(dp1894
sI444
(dp1895
sI445
(dp1896
sI446
(dp1897
sI447
(dp1898
ssI440
(dp1899
I261
g1462
sI439
g1891
ssI441
(dp1900
I439
g1892
ssI442
(dp1901
I439
g1893
ssI443
(dp1902
I299
g1568
sI439
g1894
ssI444
(dp1903
I439
g1895
ssI445
(dp1904
I439
g1896
ssI446
(dp1905
I138
g1072
sI439
g1897
ssI447
(dp1906
I439
g1898
ssI448
(dp1907
I128
g1030
sI108
g898
sI148
g1143
sI439
g1889
ssI449
(dp1908
I129
g1039
sI4
g548
sI266
g1488
sI238
g1398
sI368
g1729
sI145
g1110
sI147
g1130
sI439
g1890
sI126
g1006
ssI450
(dp1909
I451
(dp1910
sI452
(dp1911
sI453
(dp1912
sI454
(dp1913
sI455
(dp1914
sI456
(dp1915
sI457
(dp1916
sI203
g1319
sI38
g722
ssI451
(dp1917
I450
g1910
ssI452
(dp1918
I450
g1911
ssI453
(dp1919
I450
g1912
ssI454
(dp1920
I450
g1913
ssI455
(dp1921
I450
g1914
ssI456
(dp1922
I450
g1915
sI438
g1887
ssI457
(dp1923
I450
g1916
ssI458
(dp1924
I459
(dp1925
sI460
(dp1926
sI461
(dp1927
sI462
(dp1928
sI463
(dp1929
sI464
(dp1930
sI465
(dp1931
sI466
(dp1932
sI467
(dp1933
sI468
(dp1934
ssI459
(dp1935
I458
g1925
ssI460
(dp1936
I458
g1926
ssI461
(dp1937
I458
g1927
ssI462
(dp1938
I458
g1928
ssI463
(dp1939
I458
g1929
ssI464
(dp1940
I458
g1930
ssI465
(dp1941
I458
g1931
ssI466
(dp1942
I458
g1932
sI499
(dp1943
ssI467
(dp1944
I458
g1933
ssI468
(dp1945
I458
g1934
ssI469
(dp1946
I102
g890
sI41
g726
sI470
(dp1947
sI471
(dp1948
sI472
(dp1949
sI473
(dp1950
sI474
(dp1951
sI475
(dp1952
sI476
(dp1953
sI477
(dp1954
ssI470
(dp1955
I136
g1069
sI469
g1947
ssI471
(dp1956
I469
g1948
ssI472
(dp1957
I67
g794
sI347
g1676
sI469
g1949
ssI473
(dp1958
I469
g1950
sI349
g1679
ssI474
(dp1959
I469
g1951
ssI475
(dp1960
I469
g1952
ssI476
(dp1961
I469
g1953
ssI477
(dp1962
I469
g1954
ssI478
(dp1963
I480
(dp1964
sI481
(dp1965
sI482
(dp1966
sI483
(dp1967
sI484
(dp1968
sI485
(dp1969
sI486
(dp1970
sI487
(dp1971
sI488
(dp1972
sI479
(dp1973
ssI479
(dp1974
I478
g1973
ssI480
(dp1975
I478
g1964
sI382
g1772
ssI481
(dp1976
I353
g1698
sI4
g541
sI265
g1483
sI368
g1730
sI369
g1733
sI124
g985
sI478
g1965
ssI482
(dp1977
I478
g1966
ssI483
(dp1978
I478
g1967
ssI484
(dp1979
I337
g1651
sI478
g1968
ssI485
(dp1980
I353
g1703
sI251
g1439
sI8
g598
sI369
g1737
sI179
g1260
sI148
g1144
sI249
g1428
sI121
g944
sI123
g969
sI478
g1969
ssI486
(dp1981
I478
g1970
ssI487
(dp1982
I478
g1971
sI431
g1879
ssI488
(dp1983
I478
g1972
ssI489
(dp1984
I224
g1365
sI490
(dp1985
sI491
(dp1986
sI492
(dp1987
sI493
(dp1988
sI494
(dp1989
sI495
(dp1990
sI496
(dp1991
sI497
(dp1992
sI498
(dp1993
ssI490
(dp1994
I489
g1985
sI356
g1707
ssI491
(dp1995
I489
g1986
sI4
g550
ssI492
(dp1996
I489
g1987
ssI493
(dp1997
I489
g1988
ssI494
(dp1998
I489
g1989
sI211
g1338
sI335
g1648
ssI495
(dp1999
I489
g1990
ssI496
(dp2000
I489
g1991
sI418
g1848
sI164
g1203
ssI497
(dp2001
I489
g1992
ssI498
(dp2002
I489
g1993
ssI499
(dp2003
I466
g1943
sI71
g803
sssS'adj'
p2004
g511
sS'name'
p2005
S'Subgraph of ()'
p2006
sb.