(lp0
(I0
I1
tp1
a(I0
I14
tp2
a(I0
I18
tp3
a(I0
I27
tp4
a(I0
I28
tp5
a(I0
I29
tp6
a(I0
I37
tp7
a(I0
I39
tp8
a(I0
I42
tp9
a(I0
I43
tp10
a(I0
I46
tp11
a(I0
I48
tp12
a(I0
I50
tp13
a(I0
I53
tp14
a(I0
I54
tp15
a(I0
I60
tp16
a(I0
I63
tp17
a(I0
I70
tp18
a(I0
I72
tp19
a(I0
I80
tp20
a(I0
I84
tp21
a(I0
I88
tp22
a(I0
I94
tp23
a(I0
I99
tp24
a(I0
I103
tp25
a(I0
I104
tp26
a(I0
I111
tp27
a(I0
I112
tp28
a(I0
I115
tp29
a(I0
I116
tp30
a(I0
I119
tp31
a(I0
I137
tp32
a(I0
I140
tp33
a(I0
I150
tp34
a(I0
I153
tp35
a(I0
I154
tp36
a(I0
I157
tp37
a(I0
I163
tp38
a(I0
I166
tp39
a(I0
I169
tp40
a(I0
I170
tp41
a(I0
I171
tp42
a(I0
I185
tp43
a(I0
I186
tp44
a(I0
I187
tp45
a(I0
I201
tp46
a(I0
I204
tp47
a(I0
I206
tp48
a(I0
I207
tp49
a(I0
I212
tp50
a(I0
I215
tp51
a(I0
I223
tp52
a(I0
I227
tp53
a(I0
I230
tp54
a(I0
I232
tp55
a(I0
I235
tp56
a(I0
I245
tp57
a(I0
I259
tp58
a(I0
I273
tp59
a(I0
I275
tp60
a(I0
I277
tp61
a(I0
I282
tp62
a(I0
I286
tp63
a(I0
I287
tp64
a(I0
I290
tp65
a(I0
I291
tp66
a(I0
I294
tp67
a(I0
I296
tp68
a(I0
I297
tp69
a(I0
I301
tp70
a(I0
I302
tp71
a(I0
I306
tp72
a(I0
I307
tp73
a(I0
I308
tp74
a(I0
I312
tp75
a(I0
I313
tp76
a(I0
I317
tp77
a(I0
I319
tp78
a(I0
I320
tp79
a(I0
I322
tp80
a(I0
I323
tp81
a(I0
I328
tp82
a(I0
I330
tp83
a(I0
I333
tp84
a(I0
I336
tp85
a(I0
I342
tp86
a(I0
I344
tp87
a(I0
I348
tp88
a(I0
I354
tp89
a(I0
I358
tp90
a(I0
I361
tp91
a(I0
I379
tp92
a(I0
I387
tp93
a(I0
I388
tp94
a(I0
I394
tp95
a(I0
I395
tp96
a(I0
I396
tp97
a(I0
I400
tp98
a(I0
I402
tp99
a(I0
I403
tp100
a(I0
I405
tp101
a(I0
I406
tp102
a(I0
I408
tp103
a(I0
I413
tp104
a(I0
I417
tp105
a(I0
I420
tp106
a(I0
I429
tp107
a(I0
I430
tp108
a(I0
I437
tp109
a(I0
I441
tp110
a(I0
I451
tp111
a(I0
I453
tp112
a(I0
I454
tp113
a(I0
I455
tp114
a(I0
I457
tp115
a(I0
I462
tp116
a(I0
I463
tp117
a(I0
I464
tp118
a(I0
I465
tp119
a(I0
I467
tp120
a(I0
I468
tp121
a(I0
I471
tp122
a(I0
I475
tp123
a(I0
I476
tp124
a(I0
I479
tp125
a(I0
I482
tp126
a(I0
I483
tp127
a(I0
I486
tp128
a(I0
I488
tp129
a(I0
I492
tp130
a(I0
I493
tp131
a(I0
I495
tp132
a(I0
I498
tp133
a(I1
I2
tp134
a(I1
I12
tp135
a(I1
I25
tp136
a(I1
I40
tp137
a(I1
I45
tp138
a(I1
I47
tp139
a(I1
I52
tp140
a(I1
I58
tp141
a(I1
I59
tp142
a(I1
I61
tp143
a(I1
I73
tp144
a(I1
I78
tp145
a(I1
I79
tp146
a(I1
I85
tp147
a(I1
I90
tp148
a(I1
I95
tp149
a(I1
I97
tp150
a(I1
I107
tp151
a(I1
I159
tp152
a(I1
I161
tp153
a(I1
I183
tp154
a(I1
I188
tp155
a(I1
I189
tp156
a(I1
I193
tp157
a(I1
I200
tp158
a(I1
I202
tp159
a(I1
I205
tp160
a(I1
I213
tp161
a(I1
I214
tp162
a(I1
I216
tp163
a(I1
I217
tp164
a(I1
I220
tp165
a(I1
I229
tp166
a(I1
I234
tp167
a(I1
I239
tp168
a(I1
I240
tp169
a(I1
I241
tp170
a(I1
I242
tp171
a(I1
I254
tp172
a(I1
I260
tp173
a(I1
I269
tp174
a(I1
I271
tp175
a(I1
I278
tp176
a(I1
I281
tp177
a(I1
I283
tp178
a(I1
I292
tp179
a(I1
I293
tp180
a(I1
I304
tp181
a(I1
I305
tp182
a(I1
I316
tp183
a(I1
I332
tp184
a(I1
I357
tp185
a(I1
I359
tp186
a(I1
I373
tp187
a(I1
I375
tp188
a(I1
I383
tp189
a(I1
I392
tp190
a(I1
I393
tp191
a(I1
I397
tp192
a(I1
I416
tp193
a(I1
I419
tp194
a(I1
I436
tp195
a(I1
I444
tp196
a(I1
I445
tp197
a(I1
I447
tp198
a(I1
I460
tp199
a(I1
I461
tp200
a(I1
I477
tp201
a(I1
I497
tp202
a(I2
I19
tp203
a(I2
I26
tp204
a(I2
I35
tp205
a(I2
I56
tp206
a(I2
I74
tp207
a(I2
I118
tp208
a(I2
I184
tp209
a(I2
I210
tp210
a(I2
I237
tp211
a(I2
I315
tp212
a(I2
I362
tp213
a(I2
I384
tp214
a(I2
I442
tp215
a(I2
I452
tp216
a(I2
I459
tp217
a(I2
I474
tp218
a(I3
I6
tp219
a(I3
I233
tp220
a(I3
I374
tp221
a(I3
I404
tp222
a(I7
I272
tp223
a(I11
I274
tp224
a(I14
I386
tp225
a(I15
I389
tp226
a(I31
I276
tp227
a(I78
I10
tp228
a(I78
I309
tp229
a(I118
I142
tp230
a(I126
I180
tp231
a(I152
I255
tp232
a(I171
I221
tp233
a(I179
I318
tp234
a(I180
I256
tp235
a(I185
I363
tp236
a(I188
I105
tp237
a(I188
I431
tp238
a(I193
I398
tp239
a(I202
I487
tp240
a(I206
I382
tp241
a(I207
I280
tp242
a(I218
I337
tp243
a(I218
I484
tp244
a(I219
I268
tp245
a(I224
I443
tp246
a(I235
I480
tp247
a(I259
I117
tp248
a(I261
I435
tp249
a(I262
I446
tp250
a(I264
I490
tp251
a(I265
I473
tp252
a(I272
I295
tp253
a(I285
I376
tp254
a(I288
I114
tp255
a(I288
I414
tp256
a(I288
I466
tp257
a(I291
I267
tp258
a(I292
I440
tp259
a(I293
I356
tp260
a(I296
I349
tp261
a(I297
I365
tp262
a(I303
I160
tp263
a(I304
I325
tp264
a(I304
I433
tp265
a(I305
I106
tp266
a(I320
I13
tp267
a(I327
I34
tp268
a(I334
I244
tp269
a(I338
I82
tp270
a(I341
I432
tp271
a(I342
I110
tp272
a(I352
I209
tp273
a(I354
I364
tp274
a(I355
I57
tp275
a(I358
I134
tp276
a(I359
I168
tp277
a(I361
I93
tp278
a(I366
I284
tp279
a(I367
I329
tp280
a(I371
I139
tp281
a(I375
I231
tp282
a(I377
I326
tp283
a(I384
I470
tp284
a(I387
I69
tp285
a(I400
I158
tp286
a(I406
I131
tp287
a(I409
I164
tp288
a(I414
I51
tp289
a(I415
I24
tp290
a(I425
I243
tp291
a(I434
I324
tp292
a(I435
I100
tp293
a(I451
I418
tp294
a(I460
I257
tp295
a(I467
I89
tp296
a(I470
I456
tp297
a(I472
I407
tp298
a(I482
I62
tp299
a(I487
I347
tp300
a(I494
I303
tp301
a(I502
I178
tp302
a(I506
I81
tp303
a(I508
I499
tp304
a(I515
I198
tp305
a(I516
I21
tp306
a(I561
I199
tp307
a(I562
I491
tp308
a(I570
I191
tp309
a(I575
I203
tp310
a(I582
I258
tp311
a(I584
I41
tp312
a(I596
I262
tp313
a(I604
I380
tp314
a(I630
I222
tp315
a(I642
I334
tp316
a(I647
I152
tp317
a(I682
I77
tp318
a(I688
I458
tp319
a(I709
I224
tp320
a(I712
I270
tp321
a(I755
I67
tp322
a(I766
I196
tp323
a(I793
I31
tp324
a(I824
I355
tp325
a(I845
I225
tp326
a(I849
I182
tp327
a(I857
I23
tp328
a(I911
I135
tp329
a(I932
I138
tp330
a(I937
I372
tp331
a(I976
I136
tp332
a(I979
I385
tp333
a(I992
I44
tp334
a(I1003
I496
tp335
a(I1011
I208
tp336
a(I1016
I338
tp337
a(I1026
I194
tp338
a(I1077
I32
tp339
a(I1132
I16
tp340
a(I1132
I211
tp341
a(I1185
I92
tp342
a(I1200
I71
tp343
a(I1229
I261
tp344
a(I1235
I412
tp345
a(I1262
I65
tp346
a(I1302
I411
tp347
a(I1309
I165
tp348
a(I1336
I156
tp349
a(I1352
I300
tp350
a(I1384
I360
tp351
a(I1386
I438
tp352
a(I1389
I288
tp353
a(I1426
I226
tp354
a(I1441
I86
tp355
a(I1478
I310
tp356
a(I1505
I472
tp357
a(I1528
I426
tp358
a(I1547
I299
tp359
a(I1554
I91
tp360
a(I1615
I327
tp361
a(I1653
I341
tp362
a(I1670
I289
tp363
a(I1676
I96
tp364
a(I1676
I415
tp365
a(I1873
I350
tp366
a(I1895
I17
tp367
a(I1896
I285
tp368
a(I1912
I494
tp369
a(I1938
I448
tp370
a(I1994
I38
tp371
a(I2030
I197
tp372
a(I2042
I109
tp373
a(I2058
I49
tp374
a(I2083
I399
tp375
a(I2139
I450
tp376
a(I2190
I265
tp377
a(I2492
I190
tp378
a(I2621
I192
tp379
a(I2656
I478
tp380
a(I2661
I236
tp381
a(I2727
I181
tp382
a(I2765
I55
tp383
a(I2843
I102
tp384
a(I2847
I439
tp385
a(I2858
I381
tp386
a(I2915
I228
tp387
a(I2985
I133
tp388
a(I2991
I247
tp389
a(I3035
I246
tp390
a(I3045
I175
tp391
a(I3065
I335
tp392
a(I3226
I346
tp393
a(I3443
I0
tp394
a(I3595
I33
tp395
a(I3649
I22
tp396
a(I3652
I481
tp397
a(I3689
I377
tp398
a(I3803
I391
tp399
a(I3809
I125
tp400
a(I3911
I20
tp401
a(I4048
I428
tp402
a(I4175
I68
tp403
a(I4177
I162
tp404
a(I4202
I410
tp405
a(I4300
I489
tp406
a(I4392
I321
tp407
a(I4422
I64
tp408
a(I4509
I151
tp409
a(I4527
I252
tp410
a(I4553
I469
tp411
a(I4623
I108
tp412
a(I4637
I195
tp413
a(I4707
I87
tp414
a(I4913
I366
tp415
a(I4928
I331
tp416
a(I4976
I98
tp417
a(I5203
I75
tp418
a(I5263
I434
tp419
a(I5296
I339
tp420
a(I5332
I76
tp421
a(I5624
I113
tp422
a(I5675
I311
tp423
a(I5680
I343
tp424
a(I5719
I423
tp425
a(I5821
I425
tp426
a(I5830
I3
tp427
a(I6050
I345
tp428
a(I6472
I248
tp429
a(I6573
I83
tp430
a(I6584
I263
tp431
a(I6618
I279
tp432
a(I6831
I120
tp433
a(I6842
I172
tp434
a(I6884
I368
tp435
a(I7011
I128
tp436
a(I7077
I126
tp437
a(I7095
I421
tp438
a(I7163
I298
tp439
a(I7263
I401
tp440
a(I7269
I132
tp441
a(I7428
I351
tp442
a(I7466
I371
tp443
a(I7511
I11
tp444
a(I7543
I449
tp445
a(I7558
I422
tp446
a(I7677
I485
tp447
a(I7728
I424
tp448
a(I7910
I173
tp449
a(I7998
I141
tp450
a(I8082
I409
tp451
a(I8143
I250
tp452
a(I8146
I352
tp453
a(I8470
I219
tp454
a(I8471
I340
tp455
a(I8585
I370
tp456
a(I8603
I101
tp457
a(I8682
I253
tp458
a(I8942
I130
tp459
a(I9118
I15
tp460
a(I9290
I155
tp461
a(I10178
I122
tp462
a(I10413
I167
tp463
a(I10728
I36
tp464
a(I10800
I378
tp465
a(I10910
I146
tp466
a(I11014
I218
tp467
a(I11134
I66
tp468
a(I11388
I266
tp469
a(I11581
I149
tp470
a(I11603
I390
tp471
a(I11667
I251
tp472
a(I12070
I238
tp473
a(I12612
I129
tp474
a(I13455
I174
tp475
a(I13462
I30
tp476
a(I14136
I179
tp477
a(I14885
I7
tp478
a(I14917
I177
tp479
a(I15002
I367
tp480
a(I15370
I314
tp481
a(I15520
I144
tp482
a(I15732
I121
tp483
a(I16364
I369
tp484
a(I16383
I8
tp485
a(I19131
I264
tp486
a(I20031
I145
tp487
a(I20656
I148
tp488
a(I21447
I427
tp489
a(I23122
I249
tp490
a(I23723
I9
tp491
a(I23725
I4
tp492
a(I23749
I143
tp493
a(I23886
I353
tp494
a(I24450
I176
tp495
a(I25244
I127
tp496
a(I25536
I124
tp497
a(I26957
I123
tp498
a(I27136
I5
tp499
a(I30846
I147
tp500
a.