(lp0
(I0
I211
tp1
a(I0
I583
tp2
a(I0
I621
tp3
a(I0
I843
tp4
a(I1
I402
tp5
a(I1
I622
tp6
a(I1
I788
tp7
a(I1
I856
tp8
a(I1
I863
tp9
a(I2
I135
tp10
a(I3
I159
tp11
a(I3
I312
tp12
a(I3
I394
tp13
a(I3
I865
tp14
a(I4
I386
tp15
a(I5
I591
tp16
a(I5
I860
tp17
a(I5
I866
tp18
a(I6
I210
tp19
a(I7
I388
tp20
a(I7
I584
tp21
a(I7
I670
tp22
a(I7
I672
tp23
a(I7
I854
tp24
a(I8
I216
tp25
a(I8
I439
tp26
a(I11
I274
tp27
a(I11
I760
tp28
a(I11
I855
tp29
a(I11
I858
tp30
a(I11
I862
tp31
a(I11
I864
tp32
a(I11
I960
tp33
a(I12
I217
tp34
a(I13
I70
tp35
a(I13
I241
tp36
a(I13
I286
tp37
a(I13
I660
tp38
a(I13
I857
tp39
a(I14
I223
tp40
a(I15
I12
tp41
a(I16
I711
tp42
a(I16
I965
tp43
a(I17
I620
tp44
a(I17
I772
tp45
a(I18
I393
tp46
a(I18
I733
tp47
a(I19
I240
tp48
a(I19
I861
tp49
a(I21
I6
tp50
a(I21
I335
tp51
a(I21
I617
tp52
a(I21
I648
tp53
a(I21
I867
tp54
a(I22
I602
tp55
a(I23
I59
tp56
a(I23
I334
tp57
a(I23
I401
tp58
a(I24
I786
tp59
a(I25
I573
tp60
a(I26
I390
tp61
a(I26
I411
tp62
a(I26
I789
tp63
a(I27
I34
tp64
a(I27
I53
tp65
a(I27
I230
tp66
a(I27
I795
tp67
a(I31
I385
tp68
a(I31
I852
tp69
a(I33
I851
tp70
a(I34
I42
tp71
a(I34
I515
tp72
a(I35
I392
tp73
a(I36
I36
tp74
a(I37
I387
tp75
a(I38
I396
tp76
a(I40
I13
tp77
a(I40
I221
tp78
a(I41
I619
tp79
a(I44
I796
tp80
a(I45
I859
tp81
a(I46
I452
tp82
a(I48
I400
tp83
a(I48
I682
tp84
a(I48
I952
tp85
a(I49
I391
tp86
a(I50
I578
tp87
a(I50
I579
tp88
a(I50
I913
tp89
a(I51
I40
tp90
a(I52
I384
tp91
a(I52
I787
tp92
a(I52
I880
tp93
a(I53
I332
tp94
a(I54
I842
tp95
a(I55
I54
tp96
a(I55
I229
tp97
a(I55
I589
tp98
a(I56
I597
tp99
a(I57
I389
tp100
a(I57
I684
tp101
a(I58
I55
tp102
a(I58
I395
tp103
a(I58
I448
tp104
a(I58
I592
tp105
a(I59
I151
tp106
a(I59
I197
tp107
a(I59
I595
tp108
a(I60
I62
tp109
a(I60
I582
tp110
a(I61
I220
tp111
a(I61
I609
tp112
a(I61
I613
tp113
a(I62
I494
tp114
a(I63
I366
tp115
a(I63
I906
tp116
a(I65
I110
tp117
a(I66
I17
tp118
a(I66
I204
tp119
a(I66
I226
tp120
a(I66
I239
tp121
a(I67
I111
tp122
a(I67
I399
tp123
a(I67
I585
tp124
a(I68
I66
tp125
a(I69
I671
tp126
a(I70
I35
tp127
a(I70
I823
tp128
a(I71
I219
tp129
a(I71
I424
tp130
a(I72
I4
tp131
a(I73
I594
tp132
a(I73
I846
tp133
a(I74
I242
tp134
a(I74
I649
tp135
a(I75
I923
tp136
a(I77
I495
tp137
a(I77
I774
tp138
a(I78
I202
tp139
a(I79
I10
tp140
a(I79
I275
tp141
a(I79
I916
tp142
a(I81
I215
tp143
a(I81
I926
tp144
a(I83
I235
tp145
a(I83
I599
tp146
a(I84
I908
tp147
a(I86
I213
tp148
a(I86
I907
tp149
a(I88
I966
tp150
a(I89
I46
tp151
a(I89
I228
tp152
a(I89
I773
tp153
a(I89
I850
tp154
a(I89
I874
tp155
a(I92
I950
tp156
a(I93
I771
tp157
a(I94
I97
tp158
a(I94
I608
tp159
a(I95
I8
tp160
a(I95
I27
tp161
a(I95
I615
tp162
a(I97
I658
tp163
a(I98
I67
tp164
a(I100
I901
tp165
a(I102
I209
tp166
a(I104
I9
tp167
a(I104
I759
tp168
a(I105
I243
tp169
a(I105
I441
tp170
a(I107
I218
tp171
a(I107
I328
tp172
a(I108
I122
tp173
a(I108
I562
tp174
a(I108
I576
tp175
a(I111
I598
tp176
a(I114
I824
tp177
a(I115
I15
tp178
a(I115
I428
tp179
a(I116
I48
tp180
a(I116
I50
tp181
a(I117
I174
tp182
a(I118
I225
tp183
a(I120
I30
tp184
a(I121
I58
tp185
a(I121
I586
tp186
a(I123
I236
tp187
a(I124
I214
tp188
a(I124
I715
tp189
a(I125
I333
tp190
a(I125
I379
tp191
a(I126
I57
tp192
a(I126
I212
tp193
a(I127
I109
tp194
a(I127
I873
tp195
a(I128
I397
tp196
a(I129
I947
tp197
a(I130
I3
tp198
a(I130
I712
tp199
a(I132
I471
tp200
a(I132
I593
tp201
a(I133
I222
tp202
a(I134
I924
tp203
a(I135
I94
tp204
a(I135
I758
tp205
a(I136
I358
tp206
a(I137
I957
tp207
a(I138
I600
tp208
a(I140
I287
tp209
a(I140
I433
tp210
a(I140
I821
tp211
a(I141
I879
tp212
a(I142
I596
tp213
a(I143
I868
tp214
a(I144
I33
tp215
a(I144
I721
tp216
a(I145
I187
tp217
a(I145
I237
tp218
a(I145
I446
tp219
a(I146
I44
tp220
a(I148
I477
tp221
a(I150
I958
tp222
a(I151
I558
tp223
a(I151
I822
tp224
a(I153
I887
tp225
a(I156
I65
tp226
a(I157
I133
tp227
a(I158
I233
tp228
a(I158
I663
tp229
a(I161
I18
tp230
a(I161
I164
tp231
a(I161
I936
tp232
a(I167
I473
tp233
a(I167
I927
tp234
a(I168
I320
tp235
a(I170
I38
tp236
a(I171
I227
tp237
a(I172
I444
tp238
a(I172
I761
tp239
a(I176
I45
tp240
a(I177
I929
tp241
a(I179
I935
tp242
a(I180
I150
tp243
a(I180
I590
tp244
a(I182
I883
tp245
a(I183
I16
tp246
a(I189
I470
tp247
a(I190
I885
tp248
a(I192
I121
tp249
a(I194
I0
tp250
a(I195
I14
tp251
a(I196
I134
tp252
a(I197
I263
tp253
a(I197
I352
tp254
a(I198
I689
tp255
a(I199
I437
tp256
a(I200
I676
tp257
a(I201
I604
tp258
a(I202
I888
tp259
a(I203
I60
tp260
a(I204
I49
tp261
a(I204
I605
tp262
a(I205
I23
tp263
a(I206
I7
tp264
a(I206
I224
tp265
a(I206
I340
tp266
a(I210
I43
tp267
a(I211
I342
tp268
a(I211
I496
tp269
a(I212
I553
tp270
a(I212
I618
tp271
a(I214
I954
tp272
a(I215
I37
tp273
a(I216
I273
tp274
a(I219
I709
tp275
a(I220
I136
tp276
a(I221
I493
tp277
a(I226
I232
tp278
a(I226
I607
tp279
a(I226
I704
tp280
a(I226
I939
tp281
a(I227
I69
tp282
a(I227
I120
tp283
a(I227
I587
tp284
a(I227
I606
tp285
a(I227
I953
tp286
a(I230
I63
tp287
a(I231
I154
tp288
a(I233
I432
tp289
a(I236
I256
tp290
a(I236
I398
tp291
a(I239
I434
tp292
a(I239
I601
tp293
a(I241
I523
tp294
a(I242
I157
tp295
a(I243
I326
tp296
a(I244
I260
tp297
a(I244
I826
tp298
a(I246
I702
tp299
a(I247
I5
tp300
a(I247
I511
tp301
a(I248
I877
tp302
a(I250
I474
tp303
a(I251
I421
tp304
a(I252
I176
tp305
a(I258
I41
tp306
a(I258
I450
tp307
a(I261
I279
tp308
a(I262
I71
tp309
a(I262
I427
tp310
a(I264
I782
tp311
a(I264
I959
tp312
a(I265
I436
tp313
a(I266
I1
tp314
a(I266
I650
tp315
a(I266
I662
tp316
a(I268
I255
tp317
a(I268
I542
tp318
a(I269
I487
tp319
a(I270
I170
tp320
a(I270
I231
tp321
a(I271
I751
tp322
a(I272
I413
tp323
a(I273
I417
tp324
a(I274
I451
tp325
a(I274
I767
tp326
a(I276
I292
tp327
a(I276
I438
tp328
a(I276
I942
tp329
a(I276
I961
tp330
a(I277
I283
tp331
a(I278
I61
tp332
a(I280
I791
tp333
a(I284
I699
tp334
a(I285
I763
tp335
a(I287
I928
tp336
a(I289
I683
tp337
a(I291
I792
tp338
a(I295
I308
tp339
a(I295
I637
tp340
a(I297
I423
tp341
a(I297
I963
tp342
a(I298
I348
tp343
a(I298
I566
tp344
a(I299
I405
tp345
a(I300
I412
tp346
a(I300
I588
tp347
a(I301
I556
tp348
a(I302
I26
tp349
a(I303
I323
tp350
a(I304
I32
tp351
a(I304
I466
tp352
a(I305
I614
tp353
a(I307
I881
tp354
a(I308
I56
tp355
a(I309
I268
tp356
a(I310
I324
tp357
a(I312
I651
tp358
a(I313
I685
tp359
a(I314
I664
tp360
a(I314
I955
tp361
a(I316
I206
tp362
a(I316
I356
tp363
a(I316
I794
tp364
a(I317
I748
tp365
a(I320
I734
tp366
a(I321
I754
tp367
a(I322
I454
tp368
a(I326
I575
tp369
a(I328
I117
tp370
a(I328
I510
tp371
a(I329
I521
tp372
a(I329
I665
tp373
a(I330
I426
tp374
a(I330
I679
tp375
a(I330
I743
tp376
a(I330
I948
tp377
a(I331
I526
tp378
a(I332
I205
tp379
a(I334
I925
tp380
a(I337
I425
tp381
a(I338
I938
tp382
a(I339
I810
tp383
a(I340
I813
tp384
a(I341
I307
tp385
a(I342
I403
tp386
a(I344
I86
tp387
a(I345
I569
tp388
a(I346
I29
tp389
a(I346
I272
tp390
a(I349
I244
tp391
a(I351
I497
tp392
a(I353
I728
tp393
a(I354
I559
tp394
a(I356
I155
tp395
a(I357
I238
tp396
a(I357
I414
tp397
a(I360
I288
tp398
a(I360
I801
tp399
a(I360
I886
tp400
a(I361
I440
tp401
a(I362
I289
tp402
a(I362
I422
tp403
a(I363
I193
tp404
a(I364
I462
tp405
a(I364
I844
tp406
a(I364
I944
tp407
a(I365
I568
tp408
a(I367
I177
tp409
a(I368
I406
tp410
a(I368
I817
tp411
a(I368
I869
tp412
a(I368
I902
tp413
a(I371
I962
tp414
a(I372
I853
tp415
a(I373
I132
tp416
a(I374
I190
tp417
a(I374
I956
tp418
a(I375
I524
tp419
a(I376
I514
tp420
a(I378
I329
tp421
a(I382
I163
tp422
a(I382
I234
tp423
a(I382
I580
tp424
a(I382
I848
tp425
a(I382
I945
tp426
a(I383
I680
tp427
a(I384
I165
tp428
a(I384
I612
tp429
a(I385
I519
tp430
a(I386
I377
tp431
a(I387
I107
tp432
a(I389
I770
tp433
a(I390
I64
tp434
a(I390
I89
tp435
a(I392
I491
tp436
a(I395
I764
tp437
a(I396
I311
tp438
a(I398
I153
tp439
a(I398
I156
tp440
a(I400
I644
tp441
a(I401
I946
tp442
a(I403
I39
tp443
a(I403
I882
tp444
a(I405
I545
tp445
a(I407
I777
tp446
a(I408
I315
tp447
a(I409
I199
tp448
a(I409
I492
tp449
a(I409
I918
tp450
a(I410
I516
tp451
a(I410
I611
tp452
a(I411
I207
tp453
a(I411
I251
tp454
a(I411
I673
tp455
a(I413
I52
tp456
a(I415
I577
tp457
a(I415
I659
tp458
a(I416
I641
tp459
a(I417
I964
tp460
a(I418
I172
tp461
a(I418
I809
tp462
a(I421
I98
tp463
a(I421
I567
tp464
a(I422
I909
tp465
a(I423
I409
tp466
a(I424
I570
tp467
a(I425
I316
tp468
a(I426
I415
tp469
a(I426
I884
tp470
a(I428
I11
tp471
a(I428
I480
tp472
a(I429
I140
tp473
a(I429
I152
tp474
a(I432
I574
tp475
a(I433
I499
tp476
a(I435
I540
tp477
a(I435
I834
tp478
a(I436
I941
tp479
a(I437
I736
tp480
a(I439
I688
tp481
a(I441
I554
tp482
a(I442
I476
tp483
a(I443
I313
tp484
a(I445
I194
tp485
a(I446
I290
tp486
a(I447
I118
tp487
a(I447
I539
tp488
a(I447
I790
tp489
a(I450
I449
tp490
a(I451
I376
tp491
a(I452
I200
tp492
a(I452
I357
tp493
a(I453
I724
tp494
a(I454
I447
tp495
a(I455
I560
tp496
a(I455
I920
tp497
a(I456
I21
tp498
a(I456
I115
tp499
a(I459
I478
tp500
a(I459
I547
tp501
a(I460
I74
tp502
a(I460
I353
tp503
a(I463
I191
tp504
a(I463
I538
tp505
a(I463
I727
tp506
a(I463
I932
tp507
a(I465
I258
tp508
a(I465
I878
tp509
a(I465
I943
tp510
a(I467
I349
tp511
a(I467
I820
tp512
a(I471
I435
tp513
a(I471
I610
tp514
a(I472
I375
tp515
a(I474
I698
tp516
a(I480
I327
tp517
a(I482
I360
tp518
a(I484
I816
tp519
a(I486
I706
tp520
a(I488
I182
tp521
a(I489
I564
tp522
a(I490
I443
tp523
a(I491
I20
tp524
a(I491
I429
tp525
a(I491
I520
tp526
a(I491
I870
tp527
a(I492
I838
tp528
a(I492
I876
tp529
a(I492
I911
tp530
a(I493
I90
tp531
a(I493
I710
tp532
a(I496
I158
tp533
a(I496
I284
tp534
a(I500
I410
tp535
a(I500
I669
tp536
a(I501
I123
tp537
a(I501
I780
tp538
a(I501
I899
tp539
a(I502
I75
tp540
a(I502
I175
tp541
a(I506
I557
tp542
a(I507
I85
tp543
a(I507
I418
tp544
a(I507
I623
tp545
a(I510
I261
tp546
a(I511
I297
tp547
a(I511
I804
tp548
a(I513
I31
tp549
a(I513
I277
tp550
a(I515
I266
tp551
a(I516
I723
tp552
a(I517
I28
tp553
a(I517
I488
tp554
a(I519
I707
tp555
a(I521
I730
tp556
a(I523
I270
tp557
a(I523
I318
tp558
a(I524
I731
tp559
a(I525
I507
tp560
a(I525
I750
tp561
a(I526
I482
tp562
a(I526
I930
tp563
a(I527
I382
tp564
a(I527
I543
tp565
a(I528
I281
tp566
a(I531
I142
tp567
a(I531
I729
tp568
a(I532
I126
tp569
a(I532
I148
tp570
a(I536
I305
tp571
a(I536
I549
tp572
a(I536
I678
tp573
a(I536
I919
tp574
a(I537
I636
tp575
a(I538
I509
tp576
a(I540
I416
tp577
a(I540
I732
tp578
a(I542
I483
tp579
a(I543
I112
tp580
a(I544
I652
tp581
a(I544
I740
tp582
a(I545
I541
tp583
a(I546
I529
tp584
a(I547
I949
tp585
a(I548
I674
tp586
a(I552
I814
tp587
a(I553
I249
tp588
a(I555
I198
tp589
a(I555
I829
tp590
a(I555
I875
tp591
a(I557
I378
tp592
a(I557
I845
tp593
a(I557
I940
tp594
a(I558
I512
tp595
a(I558
I696
tp596
a(I559
I565
tp597
a(I562
I914
tp598
a(I562
I934
tp599
a(I565
I330
tp600
a(I565
I351
tp601
a(I565
I407
tp602
a(I565
I937
tp603
a(I566
I475
tp604
a(I568
I713
tp605
a(I571
I339
tp606
a(I575
I486
tp607
a(I577
I370
tp608
a(I577
I626
tp609
a(I579
I490
tp610
a(I579
I726
tp611
a(I580
I481
tp612
a(I582
I331
tp613
a(I585
I369
tp614
a(I586
I747
tp615
a(I586
I871
tp616
a(I590
I431
tp617
a(I591
I314
tp618
a(I592
I125
tp619
a(I596
I208
tp620
a(I596
I361
tp621
a(I598
I757
tp622
a(I599
I675
tp623
a(I599
I915
tp624
a(I600
I752
tp625
a(I604
I291
tp626
a(I606
I201
tp627
a(I606
I355
tp628
a(I608
I555
tp629
a(I611
I485
tp630
a(I611
I705
tp631
a(I611
I722
tp632
a(I612
I295
tp633
a(I612
I359
tp634
a(I614
I445
tp635
a(I614
I793
tp636
a(I615
I103
tp637
a(I616
I719
tp638
a(I618
I381
tp639
a(I618
I479
tp640
a(I618
I933
tp641
a(I620
I717
tp642
a(I621
I645
tp643
a(I624
I113
tp644
a(I625
I442
tp645
a(I625
I904
tp646
a(I626
I108
tp647
a(I627
I408
tp648
a(I630
I262
tp649
a(I633
I102
tp650
a(I633
I625
tp651
a(I635
I367
tp652
a(I636
I825
tp653
a(I639
I380
tp654
a(I639
I420
tp655
a(I639
I714
tp656
a(I642
I145
tp657
a(I642
I321
tp658
a(I644
I640
tp659
a(I647
I144
tp660
a(I648
I784
tp661
a(I650
I83
tp662
a(I650
I282
tp663
a(I652
I518
tp664
a(I653
I776
tp665
a(I654
I139
tp666
a(I655
I130
tp667
a(I655
I178
tp668
a(I655
I364
tp669
a(I655
I762
tp670
a(I656
I184
tp671
a(I656
I661
tp672
a(I657
I469
tp673
a(I657
I889
tp674
a(I658
I841
tp675
a(I659
I716
tp676
a(I661
I548
tp677
a(I662
I322
tp678
a(I662
I368
tp679
a(I664
I285
tp680
a(I664
I905
tp681
a(I665
I51
tp682
a(I668
I419
tp683
a(I668
I546
tp684
a(I669
I87
tp685
a(I669
I185
tp686
a(I672
I828
tp687
a(I673
I550
tp688
a(I673
I912
tp689
a(I673
I951
tp690
a(I676
I404
tp691
a(I676
I552
tp692
a(I678
I720
tp693
a(I679
I188
tp694
a(I679
I616
tp695
a(I679
I738
tp696
a(I681
I309
tp697
a(I683
I264
tp698
a(I684
I849
tp699
a(I686
I179
tp700
a(I687
I149
tp701
a(I687
I247
tp702
a(I687
I534
tp703
a(I688
I653
tp704
a(I690
I203
tp705
a(I692
I104
tp706
a(I692
I160
tp707
a(I692
I337
tp708
a(I693
I430
tp709
a(I693
I903
tp710
a(I695
I922
tp711
a(I696
I124
tp712
a(I697
I847
tp713
a(I702
I293
tp714
a(I703
I756
tp715
a(I706
I768
tp716
a(I707
I181
tp717
a(I707
I464
tp718
a(I710
I180
tp719
a(I710
I467
tp720
a(I714
I92
tp721
a(I715
I166
tp722
a(I716
I643
tp723
a(I717
I106
tp724
a(I717
I371
tp725
a(I718
I84
tp726
a(I719
I544
tp727
a(I720
I161
tp728
a(I725
I532
tp729
a(I726
I530
tp730
a(I729
I128
tp731
a(I730
I278
tp732
a(I731
I513
tp733
a(I734
I186
tp734
a(I736
I306
tp735
a(I736
I766
tp736
a(I743
I677
tp737
a(I744
I47
tp738
a(I744
I551
tp739
a(I749
I691
tp740
a(I750
I745
tp741
a(I752
I173
tp742
a(I753
I192
tp743
a(I754
I910
tp744
a(I755
I76
tp745
a(I757
I189
tp746
a(I757
I517
tp747
a(I758
I703
tp748
a(I760
I561
tp749
a(I761
I836
tp750
a(I762
I245
tp751
a(I764
I276
tp752
a(I764
I522
tp753
a(I765
I267
tp754
a(I765
I459
tp755
a(I767
I383
tp756
a(I767
I812
tp757
a(I769
I116
tp758
a(I771
I831
tp759
a(I773
I19
tp760
a(I773
I253
tp761
a(I774
I872
tp762
a(I774
I891
tp763
a(I776
I917
tp764
a(I780
I647
tp765
a(I785
I931
tp766
a(I791
I168
tp767
a(I792
I68
tp768
a(I793
I350
tp769
a(I793
I457
tp770
a(I795
I114
tp771
a(I796
I895
tp772
a(I797
I484
tp773
a(I799
I91
tp774
a(I800
I627
tp775
a(I803
I668
tp776
a(I805
I666
tp777
a(I807
I779
tp778
a(I808
I535
tp779
a(I812
I246
tp780
a(I813
I572
tp781
a(I814
I374
tp782
a(I814
I785
tp783
a(I814
I797
tp784
a(I816
I725
tp785
a(I817
I302
tp786
a(I819
I265
tp787
a(I821
I317
tp788
a(I823
I697
tp789
a(I827
I533
tp790
a(I828
I363
tp791
a(I829
I296
tp792
a(I829
I735
tp793
a(I829
I898
tp794
a(I830
I453
tp795
a(I835
I141
tp796
a(I836
I22
tp797
a(I836
I603
tp798
a(I836
I818
tp799
a(I841
I372
tp800
a(I842
I501
tp801
a(I842
I695
tp802
a(I843
I99
tp803
a(I844
I634
tp804
a(I845
I700
tp805
a(I846
I489
tp806
a(I846
I502
tp807
a(I847
I833
tp808
a(I852
I131
tp809
a(I855
I127
tp810
a(I855
I638
tp811
a(I856
I101
tp812
a(I856
I301
tp813
a(I858
I119
tp814
a(I861
I837
tp815
a(I862
I463
tp816
a(I864
I299
tp817
a(I866
I195
tp818
a(I870
I280
tp819
a(I871
I737
tp820
a(I872
I167
tp821
a(I874
I832
tp822
a(I877
I693
tp823
a(I880
I718
tp824
a(I881
I775
tp825
a(I888
I196
tp826
a(I888
I681
tp827
a(I889
I744
tp828
a(I892
I162
tp829
a(I892
I310
tp830
a(I894
I890
tp831
a(I895
I655
tp832
a(I896
I508
tp833
a(I897
I138
tp834
a(I897
I894
tp835
a(I899
I830
tp836
a(I901
I169
tp837
a(I901
I563
tp838
a(I903
I739
tp839
a(I907
I298
tp840
a(I908
I248
tp841
a(I909
I503
tp842
a(I918
I88
tp843
a(I922
I254
tp844
a(I922
I778
tp845
a(I922
I783
tp846
a(I925
I506
tp847
a(I925
I525
tp848
a(I926
I840
tp849
a(I929
I656
tp850
a(I932
I460
tp851
a(I934
I78
tp852
a(I937
I95
tp853
a(I938
I250
tp854
a(I944
I365
tp855
a(I946
I93
tp856
a(I946
I319
tp857
a(I947
I686
tp858
a(I948
I336
tp859
a(I949
I100
tp860
a(I950
I921
tp861
a(I952
I77
tp862
a(I953
I769
tp863
a(I954
I79
tp864
a(I958
I362
tp865
a(I960
I344
tp866
a(I962
I341
tp867
a(I963
I633
tp868
a(I966
I827
tp869
a(I969
I346
tp870
a(I973
I129
tp871
a(I973
I896
tp872
a(I979
I271
tp873
a(I979
I642
tp874
a(I981
I802
tp875
a(I981
I892
tp876
a(I984
I628
tp877
a(I987
I893
tp878
a(I990
I147
tp879
a(I991
I259
tp880
a(I993
I294
tp881
a(I995
I171
tp882
a(I996
I183
tp883
a(I997
I455
tp884
a(I997
I468
tp885
a(I999
I137
tp886
a(I1005
I528
tp887
a(I1005
I835
tp888
a(I1006
I300
tp889
a(I1006
I347
tp890
a(I1007
I96
tp891
a(I1011
I690
tp892
a(I1021
I143
tp893
a(I1022
I338
tp894
a(I1023
I257
tp895
a(I1024
I465
tp896
a(I1035
I504
tp897
a(I1036
I325
tp898
a(I1040
I252
tp899
a(I1040
I819
tp900
a(I1041
I630
tp901
a(I1052
I531
tp902
a(I1057
I571
tp903
a(I1057
I654
tp904
a(I1059
I692
tp905
a(I1065
I753
tp906
a(I1068
I624
tp907
a(I1071
I458
tp908
a(I1077
I373
tp909
a(I1083
I687
tp910
a(I1087
I749
tp911
a(I1088
I639
tp912
a(I1089
I72
tp913
a(I1099
I500
tp914
a(I1102
I527
tp915
a(I1104
I755
tp916
a(I1110
I815
tp917
a(I1114
I537
tp918
a(I1119
I498
tp919
a(I1119
I806
tp920
a(I1130
I146
tp921
a(I1132
I304
tp922
a(I1134
I900
tp923
a(I1137
I741
tp924
a(I1138
I581
tp925
a(I1139
I781
tp926
a(I1140
I798
tp927
a(I1144
I811
tp928
a(I1145
I73
tp929
a(I1146
I472
tp930
a(I1148
I631
tp931
a(I1153
I456
tp932
a(I1153
I765
tp933
a(I1159
I354
tp934
a(I1162
I799
tp935
a(I1173
I807
tp936
a(I1192
I657
tp937
a(I1198
I80
tp938
a(I1198
I635
tp939
a(I1207
I82
tp940
a(I1207
I269
tp941
a(I1207
I803
tp942
a(I1208
I667
tp943
a(I1213
I2
tp944
a(I1235
I701
tp945
a(I1241
I505
tp946
a(I1245
I708
tp947
a(I1249
I839
tp948
a(I1278
I105
tp949
a(I1284
I694
tp950
a(I1322
I800
tp951
a(I1330
I897
tp952
a(I1335
I343
tp953
a(I1351
I536
tp954
a(I1362
I629
tp955
a(I1364
I742
tp956
a(I1387
I805
tp957
a(I1406
I646
tp958
a(I1412
I461
tp959
a(I1453
I81
tp960
a(I1462
I345
tp961
a(I1525
I24
tp962
a(I1538
I303
tp963
a(I1546
I746
tp964
a(I1626
I632
tp965
a(I1757
I808
tp966
a(I1763
I25
tp967
a.