(lp0
(I0
I0
tp1
a(I1
I1
tp2
a(I2
I2
tp3
a(I3
I3
tp4
a(I4
I4
tp5
a(I5
I5
tp6
a(I6
I6
tp7
a(I7
I7
tp8
a(I8
I8
tp9
a(I9
I9
tp10
a(I10
I10
tp11
a(I11
I11
tp12
a(I12
I12
tp13
a(I13
I13
tp14
a(I14
I14
tp15
a(I15
I15
tp16
a(I16
I16
tp17
a(I17
I17
tp18
a(I18
I18
tp19
a(I19
I19
tp20
a(I20
I20
tp21
a(I21
I21
tp22
a(I22
I22
tp23
a(I23
I23
tp24
a(I24
I24
tp25
a(I25
I25
tp26
a(I26
I26
tp27
a(I27
I27
tp28
a(I28
I28
tp29
a(I29
I29
tp30
a(I30
I30
tp31
a(I31
I31
tp32
a(I32
I32
tp33
a(I33
I33
tp34
a(I34
I34
tp35
a(I35
I35
tp36
a(I36
I36
tp37
a(I37
I37
tp38
a(I38
I38
tp39
a(I39
I39
tp40
a(I40
I40
tp41
a(I41
I41
tp42
a(I42
I42
tp43
a(I43
I43
tp44
a(I44
I44
tp45
a(I45
I45
tp46
a(I46
I46
tp47
a(I47
I47
tp48
a(I48
I48
tp49
a(I49
I49
tp50
a(I50
I50
tp51
a(I51
I51
tp52
a(I52
I52
tp53
a(I53
I53
tp54
a(I54
I54
tp55
a(I55
I55
tp56
a(I56
I56
tp57
a(I57
I57
tp58
a(I58
I58
tp59
a(I59
I59
tp60
a(I60
I60
tp61
a(I61
I61
tp62
a(I62
I62
tp63
a(I63
I63
tp64
a(I64
I64
tp65
a(I65
I65
tp66
a(I66
I66
tp67
a(I67
I67
tp68
a(I68
I68
tp69
a(I69
I69
tp70
a(I70
I70
tp71
a(I71
I71
tp72
a(I72
I72
tp73
a(I73
I73
tp74
a(I74
I74
tp75
a(I75
I75
tp76
a(I76
I76
tp77
a(I77
I77
tp78
a(I78
I78
tp79
a(I79
I79
tp80
a(I80
I80
tp81
a(I81
I81
tp82
a(I82
I82
tp83
a(I83
I83
tp84
a(I84
I84
tp85
a(I85
I85
tp86
a(I86
I86
tp87
a(I87
I87
tp88
a(I88
I88
tp89
a(I89
I89
tp90
a(I90
I90
tp91
a(I91
I91
tp92
a(I92
I92
tp93
a(I93
I93
tp94
a(I94
I94
tp95
a(I95
I95
tp96
a(I96
I96
tp97
a(I97
I97
tp98
a(I98
I98
tp99
a(I99
I99
tp100
a(I100
I100
tp101
a(I101
I101
tp102
a(I102
I102
tp103
a(I103
I103
tp104
a(I104
I104
tp105
a(I105
I105
tp106
a(I106
I106
tp107
a(I107
I107
tp108
a(I108
I108
tp109
a(I109
I109
tp110
a(I110
I110
tp111
a(I111
I111
tp112
a(I112
I112
tp113
a(I113
I113
tp114
a(I114
I114
tp115
a(I115
I115
tp116
a(I116
I116
tp117
a(I117
I117
tp118
a(I118
I118
tp119
a(I119
I119
tp120
a(I120
I120
tp121
a(I121
I121
tp122
a(I122
I122
tp123
a(I123
I123
tp124
a(I124
I124
tp125
a(I125
I125
tp126
a(I126
I126
tp127
a(I127
I127
tp128
a(I128
I128
tp129
a(I129
I129
tp130
a(I130
I130
tp131
a(I131
I131
tp132
a(I132
I132
tp133
a(I133
I133
tp134
a(I134
I134
tp135
a(I135
I135
tp136
a(I136
I136
tp137
a(I137
I137
tp138
a(I138
I138
tp139
a(I139
I139
tp140
a(I140
I140
tp141
a(I141
I141
tp142
a(I142
I142
tp143
a(I143
I143
tp144
a(I144
I144
tp145
a(I145
I145
tp146
a(I146
I146
tp147
a(I147
I147
tp148
a(I148
I148
tp149
a(I149
I149
tp150
a(I150
I150
tp151
a(I151
I151
tp152
a(I152
I152
tp153
a(I153
I153
tp154
a(I154
I154
tp155
a(I155
I155
tp156
a(I156
I156
tp157
a(I157
I157
tp158
a(I158
I158
tp159
a(I159
I159
tp160
a(I160
I160
tp161
a(I161
I161
tp162
a(I162
I162
tp163
a(I163
I163
tp164
a(I164
I164
tp165
a(I165
I165
tp166
a(I166
I166
tp167
a(I167
I167
tp168
a(I168
I168
tp169
a(I169
I169
tp170
a(I170
I170
tp171
a(I171
I171
tp172
a(I172
I172
tp173
a(I173
I173
tp174
a(I174
I174
tp175
a(I175
I175
tp176
a(I176
I176
tp177
a(I177
I177
tp178
a(I178
I178
tp179
a(I179
I179
tp180
a(I180
I180
tp181
a(I181
I181
tp182
a(I182
I182
tp183
a(I183
I183
tp184
a(I184
I184
tp185
a(I185
I185
tp186
a(I186
I186
tp187
a(I187
I187
tp188
a(I188
I188
tp189
a(I189
I189
tp190
a(I190
I190
tp191
a(I191
I191
tp192
a(I192
I192
tp193
a(I193
I193
tp194
a(I194
I194
tp195
a(I195
I195
tp196
a(I196
I196
tp197
a(I197
I197
tp198
a(I198
I198
tp199
a(I199
I199
tp200
a(I200
I200
tp201
a(I201
I201
tp202
a(I202
I202
tp203
a(I203
I203
tp204
a(I204
I204
tp205
a(I205
I205
tp206
a(I206
I206
tp207
a(I207
I207
tp208
a(I208
I208
tp209
a(I209
I209
tp210
a(I210
I210
tp211
a(I211
I211
tp212
a(I212
I212
tp213
a(I213
I213
tp214
a(I214
I214
tp215
a(I215
I215
tp216
a(I216
I216
tp217
a(I217
I217
tp218
a(I218
I218
tp219
a(I219
I219
tp220
a(I220
I220
tp221
a(I221
I221
tp222
a(I222
I222
tp223
a(I223
I223
tp224
a(I224
I224
tp225
a(I225
I225
tp226
a(I226
I226
tp227
a(I227
I227
tp228
a(I228
I228
tp229
a(I229
I229
tp230
a(I230
I230
tp231
a(I231
I231
tp232
a(I232
I232
tp233
a(I233
I233
tp234
a(I234
I234
tp235
a(I235
I235
tp236
a(I236
I236
tp237
a(I237
I237
tp238
a(I238
I238
tp239
a(I239
I239
tp240
a(I240
I240
tp241
a(I241
I241
tp242
a(I242
I242
tp243
a(I243
I243
tp244
a(I244
I244
tp245
a(I245
I245
tp246
a(I246
I246
tp247
a(I247
I247
tp248
a(I248
I248
tp249
a(I249
I249
tp250
a(I250
I250
tp251
a(I251
I251
tp252
a(I252
I252
tp253
a(I253
I253
tp254
a(I254
I254
tp255
a(I255
I255
tp256
a(I256
I256
tp257
a(I257
I257
tp258
a(I258
I258
tp259
a(I259
I259
tp260
a(I260
I260
tp261
a(I261
I261
tp262
a(I262
I262
tp263
a(I263
I263
tp264
a(I264
I264
tp265
a(I265
I265
tp266
a(I266
I266
tp267
a(I267
I267
tp268
a(I268
I268
tp269
a(I269
I269
tp270
a(I270
I270
tp271
a(I271
I271
tp272
a(I272
I272
tp273
a(I273
I273
tp274
a(I274
I274
tp275
a(I275
I275
tp276
a(I276
I276
tp277
a(I277
I277
tp278
a(I278
I278
tp279
a(I279
I279
tp280
a(I280
I280
tp281
a(I281
I281
tp282
a(I282
I282
tp283
a(I283
I283
tp284
a(I284
I284
tp285
a(I285
I285
tp286
a(I286
I286
tp287
a(I287
I287
tp288
a(I288
I288
tp289
a(I289
I289
tp290
a(I290
I290
tp291
a(I291
I291
tp292
a(I292
I292
tp293
a(I293
I293
tp294
a(I294
I294
tp295
a(I295
I295
tp296
a(I296
I296
tp297
a(I297
I297
tp298
a(I298
I298
tp299
a(I299
I299
tp300
a(I300
I300
tp301
a(I301
I301
tp302
a(I302
I302
tp303
a(I303
I303
tp304
a(I304
I304
tp305
a(I305
I305
tp306
a(I306
I306
tp307
a(I307
I307
tp308
a(I308
I308
tp309
a(I309
I309
tp310
a(I310
I310
tp311
a(I311
I311
tp312
a(I312
I312
tp313
a(I313
I313
tp314
a(I314
I314
tp315
a(I315
I315
tp316
a(I316
I316
tp317
a(I317
I317
tp318
a(I318
I318
tp319
a(I319
I319
tp320
a(I320
I320
tp321
a(I321
I321
tp322
a(I322
I322
tp323
a(I323
I323
tp324
a(I324
I324
tp325
a(I325
I325
tp326
a(I326
I326
tp327
a(I327
I327
tp328
a(I328
I328
tp329
a(I329
I329
tp330
a(I330
I330
tp331
a(I331
I331
tp332
a(I332
I332
tp333
a(I333
I333
tp334
a(I334
I334
tp335
a(I335
I335
tp336
a(I336
I336
tp337
a(I337
I337
tp338
a(I338
I338
tp339
a(I339
I339
tp340
a(I340
I340
tp341
a(I341
I341
tp342
a(I342
I342
tp343
a(I343
I343
tp344
a(I344
I344
tp345
a(I345
I345
tp346
a(I346
I346
tp347
a(I347
I347
tp348
a(I348
I348
tp349
a(I349
I349
tp350
a(I350
I350
tp351
a(I351
I351
tp352
a(I352
I352
tp353
a(I353
I353
tp354
a(I354
I354
tp355
a(I355
I355
tp356
a(I356
I356
tp357
a(I357
I357
tp358
a(I358
I358
tp359
a(I359
I359
tp360
a(I360
I360
tp361
a(I361
I361
tp362
a(I362
I362
tp363
a(I363
I363
tp364
a(I364
I364
tp365
a(I365
I365
tp366
a(I366
I366
tp367
a(I367
I367
tp368
a(I368
I368
tp369
a(I369
I369
tp370
a(I370
I370
tp371
a(I371
I371
tp372
a(I372
I372
tp373
a(I373
I373
tp374
a(I374
I374
tp375
a(I375
I375
tp376
a(I376
I376
tp377
a(I377
I377
tp378
a(I378
I378
tp379
a(I379
I379
tp380
a(I380
I380
tp381
a(I381
I381
tp382
a(I382
I382
tp383
a(I383
I383
tp384
a(I384
I384
tp385
a(I385
I385
tp386
a(I386
I386
tp387
a(I387
I387
tp388
a(I388
I388
tp389
a(I389
I389
tp390
a(I390
I390
tp391
a(I391
I391
tp392
a(I392
I392
tp393
a(I393
I393
tp394
a(I394
I394
tp395
a(I395
I395
tp396
a(I396
I396
tp397
a(I397
I397
tp398
a(I398
I398
tp399
a(I399
I399
tp400
a(I400
I400
tp401
a(I401
I401
tp402
a(I402
I402
tp403
a(I403
I403
tp404
a(I404
I404
tp405
a(I405
I405
tp406
a(I406
I406
tp407
a(I407
I407
tp408
a(I408
I408
tp409
a(I409
I409
tp410
a(I410
I410
tp411
a(I411
I411
tp412
a(I412
I412
tp413
a(I413
I413
tp414
a(I414
I414
tp415
a(I415
I415
tp416
a(I416
I416
tp417
a(I417
I417
tp418
a(I418
I418
tp419
a(I419
I419
tp420
a(I420
I420
tp421
a(I421
I421
tp422
a(I422
I422
tp423
a(I423
I423
tp424
a(I424
I424
tp425
a(I425
I425
tp426
a(I426
I426
tp427
a(I427
I427
tp428
a(I428
I428
tp429
a(I429
I429
tp430
a(I430
I430
tp431
a(I431
I431
tp432
a(I432
I432
tp433
a(I433
I433
tp434
a(I434
I434
tp435
a(I435
I435
tp436
a(I436
I436
tp437
a(I437
I437
tp438
a(I438
I438
tp439
a(I439
I439
tp440
a(I440
I440
tp441
a(I441
I441
tp442
a(I442
I442
tp443
a(I443
I443
tp444
a(I444
I444
tp445
a(I445
I445
tp446
a(I446
I446
tp447
a(I447
I447
tp448
a(I448
I448
tp449
a(I449
I449
tp450
a(I450
I450
tp451
a(I451
I451
tp452
a(I452
I452
tp453
a(I453
I453
tp454
a(I454
I454
tp455
a(I455
I455
tp456
a(I456
I456
tp457
a(I457
I457
tp458
a(I458
I458
tp459
a(I459
I459
tp460
a(I460
I460
tp461
a(I461
I461
tp462
a(I462
I462
tp463
a(I463
I463
tp464
a(I464
I464
tp465
a(I465
I465
tp466
a(I466
I466
tp467
a(I467
I467
tp468
a(I468
I468
tp469
a(I469
I469
tp470
a(I470
I470
tp471
a(I471
I471
tp472
a(I472
I472
tp473
a(I473
I473
tp474
a(I474
I474
tp475
a(I475
I475
tp476
a(I476
I476
tp477
a(I477
I477
tp478
a(I478
I478
tp479
a(I479
I479
tp480
a(I480
I480
tp481
a(I481
I481
tp482
a(I482
I482
tp483
a(I483
I483
tp484
a(I484
I484
tp485
a(I485
I485
tp486
a(I486
I486
tp487
a(I487
I487
tp488
a(I488
I488
tp489
a(I489
I489
tp490
a(I490
I490
tp491
a(I491
I491
tp492
a(I492
I492
tp493
a(I493
I493
tp494
a(I494
I494
tp495
a(I495
I495
tp496
a(I496
I496
tp497
a(I497
I497
tp498
a(I498
I498
tp499
a(I499
I499
tp500
a.