(lp0
(S'aah'
p1
I0
tp2
a(S'aal'
p3
I1
tp4
a(S'aas'
p5
I2
tp6
a(S'aba'
p7
I3
tp8
a(S'abo'
p9
I4
tp10
a(S'abs'
p11
I5
tp12
a(S'aby'
p13
I6
tp14
a(S'ace'
p15
I7
tp16
a(S'act'
p17
I8
tp18
a(S'add'
p19
I9
tp20
a(S'ado'
p21
I10
tp22
a(S'ads'
p23
I11
tp24
a(S'adz'
p25
I12
tp26
a(S'aff'
p27
I13
tp28
a(S'aft'
p29
I14
tp30
a(S'aga'
p31
I15
tp32
a(S'age'
p33
I16
tp34
a(S'ago'
p35
I17
tp36
a(S'aha'
p37
I18
tp38
a(S'aid'
p39
I19
tp40
a(S'ail'
p41
I20
tp42
a(S'aim'
p43
I21
tp44
a(S'ain'
p45
I22
tp46
a(S'air'
p47
I23
tp48
a(S'ais'
p49
I24
tp50
a(S'ait'
p51
I25
tp52
a(S'ala'
p53
I26
tp54
a(S'alb'
p55
I27
tp56
a(S'ale'
p57
I28
tp58
a(S'all'
p59
I29
tp60
a(S'alp'
p61
I30
tp62
a(S'als'
p63
I31
tp64
a(S'alt'
p65
I32
tp66
a(S'ama'
p67
I33
tp68
a(S'ami'
p69
I34
tp70
a(S'amp'
p71
I35
tp72
a(S'amu'
p73
I36
tp74
a(S'ana'
p75
I37
tp76
a(S'and'
p77
I38
tp78
a(S'ane'
p79
I39
tp80
a(S'ani'
p81
I40
tp82
a(S'ant'
p83
I41
tp84
a(S'any'
p85
I42
tp86
a(S'ape'
p87
I43
tp88
a(S'apt'
p89
I44
tp90
a(S'arb'
p91
I45
tp92
a(S'arc'
p93
I46
tp94
a(S'are'
p95
I47
tp96
a(S'arf'
p97
I48
tp98
a(S'ark'
p99
I49
tp100
a(S'arm'
p101
I50
tp102
a(S'ars'
p103
I51
tp104
a(S'art'
p105
I52
tp106
a(S'ash'
p107
I53
tp108
a(S'ask'
p109
I54
tp110
a(S'asp'
p111
I55
tp112
a(S'ass'
p113
I56
tp114
a(S'ate'
p115
I57
tp116
a(S'att'
p117
I58
tp118
a(S'auk'
p119
I59
tp120
a(S'ava'
p121
I60
tp122
a(S'ave'
p123
I61
tp124
a(S'avo'
p125
I62
tp126
a(S'awa'
p127
I63
tp128
a(S'awe'
p129
I64
tp130
a(S'awl'
p131
I65
tp132
a(S'awn'
p133
I66
tp134
a(S'axe'
p135
I67
tp136
a(S'aye'
p137
I68
tp138
a(S'ays'
p139
I69
tp140
a(S'azo'
p141
I70
tp142
a(S'baa'
p143
I71
tp144
a(S'bad'
p145
I72
tp146
a(S'bag'
p147
I73
tp148
a(S'bah'
p149
I74
tp150
a(S'bal'
p151
I75
tp152
a(S'bam'
p153
I76
tp154
a(S'ban'
p155
I77
tp156
a(S'bap'
p157
I78
tp158
a(S'bar'
p159
I79
tp160
a(S'bas'
p161
I80
tp162
a(S'bat'
p163
I81
tp164
a(S'bay'
p165
I82
tp166
a(S'bed'
p167
I83
tp168
a(S'bee'
p169
I84
tp170
a(S'beg'
p171
I85
tp172
a(S'bel'
p173
I86
tp174
a(S'ben'
p175
I87
tp176
a(S'bet'
p177
I88
tp178
a(S'bey'
p179
I89
tp180
a(S'bib'
p181
I90
tp182
a(S'bid'
p183
I91
tp184
a(S'big'
p185
I92
tp186
a(S'bin'
p187
I93
tp188
a(S'bio'
p189
I94
tp190
a(S'bis'
p191
I95
tp192
a(S'bit'
p193
I96
tp194
a(S'biz'
p195
I97
tp196
a(S'boa'
p197
I98
tp198
a(S'bob'
p199
I99
tp200
a(S'bod'
p201
I100
tp202
a(S'bog'
p203
I101
tp204
a(S'boo'
p205
I102
tp206
a(S'bop'
p207
I103
tp208
a(S'bos'
p209
I104
tp210
a(S'bot'
p211
I105
tp212
a(S'bow'
p213
I106
tp214
a(S'box'
p215
I107
tp216
a(S'boy'
p217
I108
tp218
a(S'bra'
p219
I109
tp220
a(S'bro'
p221
I110
tp222
a(S'brr'
p223
I111
tp224
a(S'bub'
p225
I112
tp226
a(S'bud'
p227
I113
tp228
a(S'bug'
p229
I114
tp230
a(S'bum'
p231
I115
tp232
a(S'bun'
p233
I116
tp234
a(S'bur'
p235
I117
tp236
a(S'bus'
p237
I118
tp238
a(S'but'
p239
I119
tp240
a(S'buy'
p241
I120
tp242
a(S'bye'
p243
I121
tp244
a(S'bys'
p245
I122
tp246
a(S'cab'
p247
I123
tp248
a(S'cad'
p249
I124
tp250
a(S'cam'
p251
I125
tp252
a(S'can'
p253
I126
tp254
a(S'cap'
p255
I127
tp256
a(S'car'
p257
I128
tp258
a(S'cat'
p259
I129
tp260
a(S'caw'
p261
I130
tp262
a(S'cay'
p263
I131
tp264
a(S'cee'
p265
I132
tp266
a(S'cel'
p267
I133
tp268
a(S'cep'
p269
I134
tp270
a(S'chi'
p271
I135
tp272
a(S'cis'
p273
I136
tp274
a(S'cob'
p275
I137
tp276
a(S'cod'
p277
I138
tp278
a(S'cog'
p279
I139
tp280
a(S'col'
p281
I140
tp282
a(S'con'
p283
I141
tp284
a(S'coo'
p285
I142
tp286
a(S'cop'
p287
I143
tp288
a(S'cor'
p289
I144
tp290
a(S'cos'
p291
I145
tp292
a(S'cot'
p293
I146
tp294
a(S'cow'
p295
I147
tp296
a(S'cox'
p297
I148
tp298
a(S'coy'
p299
I149
tp300
a(S'coz'
p301
I150
tp302
a(S'cry'
p303
I151
tp304
a(S'cub'
p305
I152
tp306
a(S'cud'
p307
I153
tp308
a(S'cue'
p309
I154
tp310
a(S'cum'
p311
I155
tp312
a(S'cup'
p313
I156
tp314
a(S'cur'
p315
I157
tp316
a(S'cut'
p317
I158
tp318
a(S'cwm'
p319
I159
tp320
a(S'dab'
p321
I160
tp322
a(S'dad'
p323
I161
tp324
a(S'dag'
p325
I162
tp326
a(S'dah'
p327
I163
tp328
a(S'dak'
p329
I164
tp330
a(S'dal'
p331
I165
tp332
a(S'dam'
p333
I166
tp334
a(S'dap'
p335
I167
tp336
a(S'daw'
p337
I168
tp338
a(S'day'
p339
I169
tp340
a(S'deb'
p341
I170
tp342
a(S'dee'
p343
I171
tp344
a(S'del'
p345
I172
tp346
a(S'den'
p347
I173
tp348
a(S'dev'
p349
I174
tp350
a(S'dew'
p351
I175
tp352
a(S'dex'
p353
I176
tp354
a(S'dey'
p355
I177
tp356
a(S'dib'
p357
I178
tp358
a(S'did'
p359
I179
tp360
a(S'die'
p361
I180
tp362
a(S'dig'
p363
I181
tp364
a(S'dim'
p365
I182
tp366
a(S'din'
p367
I183
tp368
a(S'dip'
p369
I184
tp370
a(S'dis'
p371
I185
tp372
a(S'dit'
p373
I186
tp374
a(S'doc'
p375
I187
tp376
a(S'doe'
p377
I188
tp378
a(S'dog'
p379
I189
tp380
a(S'dol'
p381
I190
tp382
a(S'dom'
p383
I191
tp384
a(S'don'
p385
I192
tp386
a(S'dor'
p387
I193
tp388
a(S'dos'
p389
I194
tp390
a(S'dot'
p391
I195
tp392
a(S'dow'
p393
I196
tp394
a(S'dry'
p395
I197
tp396
a(S'dub'
p397
I198
tp398
a(S'dud'
p399
I199
tp400
a(S'due'
p401
I200
tp402
a(S'dug'
p403
I201
tp404
a(S'dui'
p405
I202
tp406
a(S'dun'
p407
I203
tp408
a(S'duo'
p409
I204
tp410
a(S'dup'
p411
I205
tp412
a(S'dye'
p413
I206
tp414
a(S'ear'
p415
I207
tp416
a(S'eat'
p417
I208
tp418
a(S'eau'
p419
I209
tp420
a(S'ecu'
p421
I210
tp422
a(S'edh'
p423
I211
tp424
a(S'eel'
p425
I212
tp426
a(S'eff'
p427
I213
tp428
a(S'efs'
p429
I214
tp430
a(S'eft'
p431
I215
tp432
a(S'egg'
p433
I216
tp434
a(S'ego'
p435
I217
tp436
a(S'eke'
p437
I218
tp438
a(S'eld'
p439
I219
tp440
a(S'elf'
p441
I220
tp442
a(S'elk'
p443
I221
tp444
a(S'ell'
p445
I222
tp446
a(S'elm'
p447
I223
tp448
a(S'els'
p449
I224
tp450
a(S'eme'
p451
I225
tp452
a(S'emf'
p453
I226
tp454
a(S'ems'
p455
I227
tp456
a(S'emu'
p457
I228
tp458
a(S'end'
p459
I229
tp460
a(S'eng'
p461
I230
tp462
a(S'ens'
p463
I231
tp464
a(S'eon'
p465
I232
tp466
a(S'era'
p467
I233
tp468
a(S'ere'
p469
I234
tp470
a(S'erg'
p471
I235
tp472
a(S'ern'
p473
I236
tp474
a(S'err'
p475
I237
tp476
a(S'ers'
p477
I238
tp478
a(S'ess'
p479
I239
tp480
a(S'eta'
p481
I240
tp482
a(S'eth'
p483
I241
tp484
a(S'eve'
p485
I242
tp486
a(S'ewe'
p487
I243
tp488
a(S'eye'
p489
I244
tp490
a(S'fad'
p491
I245
tp492
a(S'fag'
p493
I246
tp494
a(S'fan'
p495
I247
tp496
a(S'far'
p497
I248
tp498
a(S'fas'
p499
I249
tp500
a(S'fat'
p501
I250
tp502
a(S'fax'
p503
I251
tp504
a(S'fay'
p505
I252
tp506
a(S'fed'
p507
I253
tp508
a(S'fee'
p509
I254
tp510
a(S'feh'
p511
I255
tp512
a(S'fem'
p513
I256
tp514
a(S'fen'
p515
I257
tp516
a(S'fer'
p517
I258
tp518
a(S'fet'
p519
I259
tp520
a(S'feu'
p521
I260
tp522
a(S'few'
p523
I261
tp524
a(S'fey'
p525
I262
tp526
a(S'fez'
p527
I263
tp528
a(S'fib'
p529
I264
tp530
a(S'fid'
p531
I265
tp532
a(S'fie'
p533
I266
tp534
a(S'fig'
p535
I267
tp536
a(S'fil'
p537
I268
tp538
a(S'fin'
p539
I269
tp540
a(S'fir'
p541
I270
tp542
a(S'fit'
p543
I271
tp544
a(S'fix'
p545
I272
tp546
a(S'fiz'
p547
I273
tp548
a(S'flu'
p549
I274
tp550
a(S'fly'
p551
I275
tp552
a(S'fob'
p553
I276
tp554
a(S'foe'
p555
I277
tp556
a(S'fog'
p557
I278
tp558
a(S'foh'
p559
I279
tp560
a(S'fon'
p561
I280
tp562
a(S'fop'
p563
I281
tp564
a(S'for'
p565
I282
tp566
a(S'fou'
p567
I283
tp568
a(S'fox'
p569
I284
tp570
a(S'foy'
p571
I285
tp572
a(S'fro'
p573
I286
tp574
a(S'fry'
p575
I287
tp576
a(S'fub'
p577
I288
tp578
a(S'fud'
p579
I289
tp580
a(S'fug'
p581
I290
tp582
a(S'fun'
p583
I291
tp584
a(S'fur'
p585
I292
tp586
a(S'gab'
p587
I293
tp588
a(S'gad'
p589
I294
tp590
a(S'gae'
p591
I295
tp592
a(S'gag'
p593
I296
tp594
a(S'gal'
p595
I297
tp596
a(S'gam'
p597
I298
tp598
a(S'gan'
p599
I299
tp600
a(S'gap'
p601
I300
tp602
a(S'gar'
p603
I301
tp604
a(S'gas'
p605
I302
tp606
a(S'gat'
p607
I303
tp608
a(S'gay'
p609
I304
tp610
a(S'ged'
p611
I305
tp612
a(S'gee'
p613
I306
tp614
a(S'gel'
p615
I307
tp616
a(S'gem'
p617
I308
tp618
a(S'gen'
p619
I309
tp620
a(S'get'
p621
I310
tp622
a(S'gey'
p623
I311
tp624
a(S'ghi'
p625
I312
tp626
a(S'gib'
p627
I313
tp628
a(S'gid'
p629
I314
tp630
a(S'gie'
p631
I315
tp632
a(S'gig'
p633
I316
tp634
a(S'gin'
p635
I317
tp636
a(S'gip'
p637
I318
tp638
a(S'git'
p639
I319
tp640
a(S'goa'
p641
I320
tp642
a(S'gob'
p643
I321
tp644
a(S'god'
p645
I322
tp646
a(S'goo'
p647
I323
tp648
a(S'gor'
p649
I324
tp650
a(S'got'
p651
I325
tp652
a(S'gox'
p653
I326
tp654
a(S'goy'
p655
I327
tp656
a(S'gul'
p657
I328
tp658
a(S'gum'
p659
I329
tp660
a(S'gun'
p661
I330
tp662
a(S'gut'
p663
I331
tp664
a(S'guv'
p665
I332
tp666
a(S'guy'
p667
I333
tp668
a(S'gym'
p669
I334
tp670
a(S'gyp'
p671
I335
tp672
a(S'had'
p673
I336
tp674
a(S'hae'
p675
I337
tp676
a(S'hag'
p677
I338
tp678
a(S'hah'
p679
I339
tp680
a(S'haj'
p681
I340
tp682
a(S'ham'
p683
I341
tp684
a(S'hao'
p685
I342
tp686
a(S'hap'
p687
I343
tp688
a(S'has'
p689
I344
tp690
a(S'hat'
p691
I345
tp692
a(S'haw'
p693
I346
tp694
a(S'hay'
p695
I347
tp696
a(S'heh'
p697
I348
tp698
a(S'hem'
p699
I349
tp700
a(S'hen'
p701
I350
tp702
a(S'hep'
p703
I351
tp704
a(S'her'
p705
I352
tp706
a(S'hes'
p707
I353
tp708
a(S'het'
p709
I354
tp710
a(S'hew'
p711
I355
tp712
a(S'hex'
p713
I356
tp714
a(S'hey'
p715
I357
tp716
a(S'hic'
p717
I358
tp718
a(S'hid'
p719
I359
tp720
a(S'hie'
p721
I360
tp722
a(S'him'
p723
I361
tp724
a(S'hin'
p725
I362
tp726
a(S'hip'
p727
I363
tp728
a(S'his'
p729
I364
tp730
a(S'hit'
p731
I365
tp732
a(S'hmm'
p733
I366
tp734
a(S'hob'
p735
I367
tp736
a(S'hod'
p737
I368
tp738
a(S'hoe'
p739
I369
tp740
a(S'hog'
p741
I370
tp742
a(S'hon'
p743
I371
tp744
a(S'hop'
p745
I372
tp746
a(S'hot'
p747
I373
tp748
a(S'how'
p749
I374
tp750
a(S'hoy'
p751
I375
tp752
a(S'hub'
p753
I376
tp754
a(S'hue'
p755
I377
tp756
a(S'hug'
p757
I378
tp758
a(S'huh'
p759
I379
tp760
a(S'hum'
p761
I380
tp762
a(S'hun'
p763
I381
tp764
a(S'hup'
p765
I382
tp766
a(S'hut'
p767
I383
tp768
a(S'hyp'
p769
I384
tp770
a(S'ice'
p771
I385
tp772
a(S'ich'
p773
I386
tp774
a(S'ick'
p775
I387
tp776
a(S'icy'
p777
I388
tp778
a(S'ids'
p779
I389
tp780
a(S'iff'
p781
I390
tp782
a(S'ifs'
p783
I391
tp784
a(S'ilk'
p785
I392
tp786
a(S'ill'
p787
I393
tp788
a(S'imp'
p789
I394
tp790
a(S'ink'
p791
I395
tp792
a(S'inn'
p793
I396
tp794
a(S'ins'
p795
I397
tp796
a(S'ion'
p797
I398
tp798
a(S'ire'
p799
I399
tp800
a(S'irk'
p801
I400
tp802
a(S'its'
p803
I401
tp804
a(S'ivy'
p805
I402
tp806
a(S'jab'
p807
I403
tp808
a(S'jag'
p809
I404
tp810
a(S'jam'
p811
I405
tp812
a(S'jar'
p813
I406
tp814
a(S'jaw'
p815
I407
tp816
a(S'jay'
p817
I408
tp818
a(S'jee'
p819
I409
tp820
a(S'jet'
p821
I410
tp822
a(S'jeu'
p823
I411
tp824
a(S'jew'
p825
I412
tp826
a(S'jib'
p827
I413
tp828
a(S'jig'
p829
I414
tp830
a(S'jin'
p831
I415
tp832
a(S'job'
p833
I416
tp834
a(S'joe'
p835
I417
tp836
a(S'jog'
p837
I418
tp838
a(S'jot'
p839
I419
tp840
a(S'jow'
p841
I420
tp842
a(S'joy'
p843
I421
tp844
a(S'jug'
p845
I422
tp846
a(S'jun'
p847
I423
tp848
a(S'jus'
p849
I424
tp850
a(S'jut'
p851
I425
tp852
a(S'kab'
p853
I426
tp854
a(S'kae'
p855
I427
tp856
a(S'kaf'
p857
I428
tp858
a(S'kas'
p859
I429
tp860
a(S'kat'
p861
I430
tp862
a(S'kay'
p863
I431
tp864
a(S'kea'
p865
I432
tp866
a(S'kef'
p867
I433
tp868
a(S'keg'
p869
I434
tp870
a(S'ken'
p871
I435
tp872
a(S'kep'
p873
I436
tp874
a(S'kex'
p875
I437
tp876
a(S'key'
p877
I438
tp878
a(S'khi'
p879
I439
tp880
a(S'kid'
p881
I440
tp882
a(S'kif'
p883
I441
tp884
a(S'kin'
p885
I442
tp886
a(S'kip'
p887
I443
tp888
a(S'kir'
p889
I444
tp890
a(S'kit'
p891
I445
tp892
a(S'koa'
p893
I446
tp894
a(S'kob'
p895
I447
tp896
a(S'koi'
p897
I448
tp898
a(S'kop'
p899
I449
tp900
a(S'kor'
p901
I450
tp902
a(S'kos'
p903
I451
tp904
a(S'kue'
p905
I452
tp906
a(S'lab'
p907
I453
tp908
a(S'lac'
p909
I454
tp910
a(S'lad'
p911
I455
tp912
a(S'lag'
p913
I456
tp914
a(S'lam'
p915
I457
tp916
a(S'lap'
p917
I458
tp918
a(S'lar'
p919
I459
tp920
a(S'las'
p921
I460
tp922
a(S'lat'
p923
I461
tp924
a(S'lav'
p925
I462
tp926
a(S'law'
p927
I463
tp928
a(S'lax'
p929
I464
tp930
a(S'lay'
p931
I465
tp932
a(S'lea'
p933
I466
tp934
a(S'led'
p935
I467
tp936
a(S'lee'
p937
I468
tp938
a(S'leg'
p939
I469
tp940
a(S'lei'
p941
I470
tp942
a(S'lek'
p943
I471
tp944
a(S'let'
p945
I472
tp946
a(S'leu'
p947
I473
tp948
a(S'lev'
p949
I474
tp950
a(S'lex'
p951
I475
tp952
a(S'ley'
p953
I476
tp954
a(S'lez'
p955
I477
tp956
a(S'lib'
p957
I478
tp958
a(S'lid'
p959
I479
tp960
a(S'lie'
p961
I480
tp962
a(S'lin'
p963
I481
tp964
a(S'lip'
p965
I482
tp966
a(S'lis'
p967
I483
tp968
a(S'lit'
p969
I484
tp970
a(S'lob'
p971
I485
tp972
a(S'log'
p973
I486
tp974
a(S'loo'
p975
I487
tp976
a(S'lop'
p977
I488
tp978
a(S'lot'
p979
I489
tp980
a(S'low'
p981
I490
tp982
a(S'lox'
p983
I491
tp984
a(S'lug'
p985
I492
tp986
a(S'lum'
p987
I493
tp988
a(S'luv'
p989
I494
tp990
a(S'lux'
p991
I495
tp992
a(S'lye'
p993
I496
tp994
a(S'mac'
p995
I497
tp996
a(S'mad'
p997
I498
tp998
a(S'mae'
p999
I499
tp1000
a(S'mag'
p1001
I500
tp1002
a(S'man'
p1003
I501
tp1004
a(S'map'
p1005
I502
tp1006
a(S'mar'
p1007
I503
tp1008
a(S'mas'
p1009
I504
tp1010
a(S'mat'
p1011
I505
tp1012
a(S'maw'
p1013
I506
tp1014
a(S'max'
p1015
I507
tp1016
a(S'may'
p1017
I508
tp1018
a(S'med'
p1019
I509
tp1020
a(S'mel'
p1021
I510
tp1022
a(S'mem'
p1023
I511
tp1024
a(S'men'
p1025
I512
tp1026
a(S'met'
p1027
I513
tp1028
a(S'mew'
p1029
I514
tp1030
a(S'mho'
p1031
I515
tp1032
a(S'mib'
p1033
I516
tp1034
a(S'mid'
p1035
I517
tp1036
a(S'mig'
p1037
I518
tp1038
a(S'mil'
p1039
I519
tp1040
a(S'mim'
p1041
I520
tp1042
a(S'mir'
p1043
I521
tp1044
a(S'mis'
p1045
I522
tp1046
a(S'mix'
p1047
I523
tp1048
a(S'moa'
p1049
I524
tp1050
a(S'mob'
p1051
I525
tp1052
a(S'moc'
p1053
I526
tp1054
a(S'mod'
p1055
I527
tp1056
a(S'mog'
p1057
I528
tp1058
a(S'mol'
p1059
I529
tp1060
a(S'mom'
p1061
I530
tp1062
a(S'mon'
p1063
I531
tp1064
a(S'moo'
p1065
I532
tp1066
a(S'mop'
p1067
I533
tp1068
a(S'mor'
p1069
I534
tp1070
a(S'mos'
p1071
I535
tp1072
a(S'mot'
p1073
I536
tp1074
a(S'mow'
p1075
I537
tp1076
a(S'mud'
p1077
I538
tp1078
a(S'mug'
p1079
I539
tp1080
a(S'mum'
p1081
I540
tp1082
a(S'mun'
p1083
I541
tp1084
a(S'mus'
p1085
I542
tp1086
a(S'mut'
p1087
I543
tp1088
a(S'nab'
p1089
I544
tp1090
a(S'nae'
p1091
I545
tp1092
a(S'nag'
p1093
I546
tp1094
a(S'nah'
p1095
I547
tp1096
a(S'nam'
p1097
I548
tp1098
a(S'nan'
p1099
I549
tp1100
a(S'nap'
p1101
I550
tp1102
a(S'naw'
p1103
I551
tp1104
a(S'nay'
p1105
I552
tp1106
a(S'neb'
p1107
I553
tp1108
a(S'nee'
p1109
I554
tp1110
a(S'net'
p1111
I555
tp1112
a(S'new'
p1113
I556
tp1114
a(S'nib'
p1115
I557
tp1116
a(S'nil'
p1117
I558
tp1118
a(S'nim'
p1119
I559
tp1120
a(S'nip'
p1121
I560
tp1122
a(S'nit'
p1123
I561
tp1124
a(S'nix'
p1125
I562
tp1126
a(S'nob'
p1127
I563
tp1128
a(S'nod'
p1129
I564
tp1130
a(S'nog'
p1131
I565
tp1132
a(S'noh'
p1133
I566
tp1134
a(S'nom'
p1135
I567
tp1136
a(S'noo'
p1137
I568
tp1138
a(S'nor'
p1139
I569
tp1140
a(S'nos'
p1141
I570
tp1142
a(S'not'
p1143
I571
tp1144
a(S'now'
p1145
I572
tp1146
a(S'nth'
p1147
I573
tp1148
a(S'nub'
p1149
I574
tp1150
a(S'nun'
p1151
I575
tp1152
a(S'nus'
p1153
I576
tp1154
a(S'nut'
p1155
I577
tp1156
a(S'oaf'
p1157
I578
tp1158
a(S'oak'
p1159
I579
tp1160
a(S'oar'
p1161
I580
tp1162
a(S'oat'
p1163
I581
tp1164
a(S'obe'
p1165
I582
tp1166
a(S'obi'
p1167
I583
tp1168
a(S'oca'
p1169
I584
tp1170
a(S'odd'
p1171
I585
tp1172
a(S'ode'
p1173
I586
tp1174
a(S'ods'
p1175
I587
tp1176
a(S'oes'
p1177
I588
tp1178
a(S'off'
p1179
I589
tp1180
a(S'oft'
p1181
I590
tp1182
a(S'ohm'
p1183
I591
tp1184
a(S'oho'
p1185
I592
tp1186
a(S'ohs'
p1187
I593
tp1188
a(S'oil'
p1189
I594
tp1190
a(S'oka'
p1191
I595
tp1192
a(S'oke'
p1193
I596
tp1194
a(S'old'
p1195
I597
tp1196
a(S'ole'
p1197
I598
tp1198
a(S'oms'
p1199
I599
tp1200
a(S'one'
p1201
I600
tp1202
a(S'ons'
p1203
I601
tp1204
a(S'ooh'
p1205
I602
tp1206
a(S'oot'
p1207
I603
tp1208
a(S'ope'
p1209
I604
tp1210
a(S'ops'
p1211
I605
tp1212
a(S'opt'
p1213
I606
tp1214
a(S'ora'
p1215
I607
tp1216
a(S'orb'
p1217
I608
tp1218
a(S'orc'
p1219
I609
tp1220
a(S'ore'
p1221
I610
tp1222
a(S'ors'
p1223
I611
tp1224
a(S'ort'
p1225
I612
tp1226
a(S'ose'
p1227
I613
tp1228
a(S'oud'
p1229
I614
tp1230
a(S'our'
p1231
I615
tp1232
a(S'out'
p1233
I616
tp1234
a(S'ova'
p1235
I617
tp1236
a(S'owe'
p1237
I618
tp1238
a(S'owl'
p1239
I619
tp1240
a(S'own'
p1241
I620
tp1242
a(S'oxo'
p1243
I621
tp1244
a(S'oxy'
p1245
I622
tp1246
a(S'pac'
p1247
I623
tp1248
a(S'pad'
p1249
I624
tp1250
a(S'pah'
p1251
I625
tp1252
a(S'pal'
p1253
I626
tp1254
a(S'pam'
p1255
I627
tp1256
a(S'pan'
p1257
I628
tp1258
a(S'pap'
p1259
I629
tp1260
a(S'par'
p1261
I630
tp1262
a(S'pas'
p1263
I631
tp1264
a(S'pat'
p1265
I632
tp1266
a(S'paw'
p1267
I633
tp1268
a(S'pax'
p1269
I634
tp1270
a(S'pay'
p1271
I635
tp1272
a(S'pea'
p1273
I636
tp1274
a(S'pec'
p1275
I637
tp1276
a(S'ped'
p1277
I638
tp1278
a(S'pee'
p1279
I639
tp1280
a(S'peg'
p1281
I640
tp1282
a(S'peh'
p1283
I641
tp1284
a(S'pen'
p1285
I642
tp1286
a(S'pep'
p1287
I643
tp1288
a(S'per'
p1289
I644
tp1290
a(S'pes'
p1291
I645
tp1292
a(S'pet'
p1293
I646
tp1294
a(S'pew'
p1295
I647
tp1296
a(S'phi'
p1297
I648
tp1298
a(S'pht'
p1299
I649
tp1300
a(S'pia'
p1301
I650
tp1302
a(S'pic'
p1303
I651
tp1304
a(S'pie'
p1305
I652
tp1306
a(S'pig'
p1307
I653
tp1308
a(S'pin'
p1309
I654
tp1310
a(S'pip'
p1311
I655
tp1312
a(S'pis'
p1313
I656
tp1314
a(S'pit'
p1315
I657
tp1316
a(S'piu'
p1317
I658
tp1318
a(S'pix'
p1319
I659
tp1320
a(S'ply'
p1321
I660
tp1322
a(S'pod'
p1323
I661
tp1324
a(S'poh'
p1325
I662
tp1326
a(S'poi'
p1327
I663
tp1328
a(S'pol'
p1329
I664
tp1330
a(S'pom'
p1331
I665
tp1332
a(S'pop'
p1333
I666
tp1334
a(S'pot'
p1335
I667
tp1336
a(S'pow'
p1337
I668
tp1338
a(S'pox'
p1339
I669
tp1340
a(S'pro'
p1341
I670
tp1342
a(S'pry'
p1343
I671
tp1344
a(S'psi'
p1345
I672
tp1346
a(S'pub'
p1347
I673
tp1348
a(S'pud'
p1349
I674
tp1350
a(S'pug'
p1351
I675
tp1352
a(S'pul'
p1353
I676
tp1354
a(S'pun'
p1355
I677
tp1356
a(S'pup'
p1357
I678
tp1358
a(S'pur'
p1359
I679
tp1360
a(S'pus'
p1361
I680
tp1362
a(S'put'
p1363
I681
tp1364
a(S'pya'
p1365
I682
tp1366
a(S'pye'
p1367
I683
tp1368
a(S'pyx'
p1369
I684
tp1370
a(S'qat'
p1371
I685
tp1372
a(S'rad'
p1373
I686
tp1374
a(S'rag'
p1375
I687
tp1376
a(S'rah'
p1377
I688
tp1378
a(S'raj'
p1379
I689
tp1380
a(S'ram'
p1381
I690
tp1382
a(S'ran'
p1383
I691
tp1384
a(S'rap'
p1385
I692
tp1386
a(S'ras'
p1387
I693
tp1388
a(S'rat'
p1389
I694
tp1390
a(S'raw'
p1391
I695
tp1392
a(S'rax'
p1393
I696
tp1394
a(S'ray'
p1395
I697
tp1396
a(S'reb'
p1397
I698
tp1398
a(S'rec'
p1399
I699
tp1400
a(S'red'
p1401
I700
tp1402
a(S'ree'
p1403
I701
tp1404
a(S'ref'
p1405
I702
tp1406
a(S'reg'
p1407
I703
tp1408
a(S'rei'
p1409
I704
tp1410
a(S'rem'
p1411
I705
tp1412
a(S'rep'
p1413
I706
tp1414
a(S'res'
p1415
I707
tp1416
a(S'ret'
p1417
I708
tp1418
a(S'rev'
p1419
I709
tp1420
a(S'rex'
p1421
I710
tp1422
a(S'rho'
p1423
I711
tp1424
a(S'ria'
p1425
I712
tp1426
a(S'rib'
p1427
I713
tp1428
a(S'rid'
p1429
I714
tp1430
a(S'rif'
p1431
I715
tp1432
a(S'rig'
p1433
I716
tp1434
a(S'rim'
p1435
I717
tp1436
a(S'rin'
p1437
I718
tp1438
a(S'rip'
p1439
I719
tp1440
a(S'rob'
p1441
I720
tp1442
a(S'roc'
p1443
I721
tp1444
a(S'rod'
p1445
I722
tp1446
a(S'roe'
p1447
I723
tp1448
a(S'rom'
p1449
I724
tp1450
a(S'rot'
p1451
I725
tp1452
a(S'row'
p1453
I726
tp1454
a(S'rub'
p1455
I727
tp1456
a(S'rue'
p1457
I728
tp1458
a(S'rug'
p1459
I729
tp1460
a(S'rum'
p1461
I730
tp1462
a(S'run'
p1463
I731
tp1464
a(S'rut'
p1465
I732
tp1466
a(S'rya'
p1467
I733
tp1468
a(S'rye'
p1469
I734
tp1470
a(S'sab'
p1471
I735
tp1472
a(S'sac'
p1473
I736
tp1474
a(S'sad'
p1475
I737
tp1476
a(S'sae'
p1477
I738
tp1478
a(S'sag'
p1479
I739
tp1480
a(S'sal'
p1481
I740
tp1482
a(S'sap'
p1483
I741
tp1484
a(S'sat'
p1485
I742
tp1486
a(S'sau'
p1487
I743
tp1488
a(S'saw'
p1489
I744
tp1490
a(S'sax'
p1491
I745
tp1492
a(S'say'
p1493
I746
tp1494
a(S'sea'
p1495
I747
tp1496
a(S'sec'
p1497
I748
tp1498
a(S'see'
p1499
I749
tp1500
a(S'seg'
p1501
I750
tp1502
a(S'sei'
p1503
I751
tp1504
a(S'sel'
p1505
I752
tp1506
a(S'sen'
p1507
I753
tp1508
a(S'ser'
p1509
I754
tp1510
a(S'set'
p1511
I755
tp1512
a(S'sew'
p1513
I756
tp1514
a(S'sex'
p1515
I757
tp1516
a(S'sha'
p1517
I758
tp1518
a(S'she'
p1519
I759
tp1520
a(S'shh'
p1521
I760
tp1522
a(S'shy'
p1523
I761
tp1524
a(S'sib'
p1525
I762
tp1526
a(S'sic'
p1527
I763
tp1528
a(S'sim'
p1529
I764
tp1530
a(S'sin'
p1531
I765
tp1532
a(S'sip'
p1533
I766
tp1534
a(S'sir'
p1535
I767
tp1536
a(S'sis'
p1537
I768
tp1538
a(S'sit'
p1539
I769
tp1540
a(S'six'
p1541
I770
tp1542
a(S'ska'
p1543
I771
tp1544
a(S'ski'
p1545
I772
tp1546
a(S'sky'
p1547
I773
tp1548
a(S'sly'
p1549
I774
tp1550
a(S'sob'
p1551
I775
tp1552
a(S'sod'
p1553
I776
tp1554
a(S'sol'
p1555
I777
tp1556
a(S'son'
p1557
I778
tp1558
a(S'sop'
p1559
I779
tp1560
a(S'sos'
p1561
I780
tp1562
a(S'sot'
p1563
I781
tp1564
a(S'sou'
p1565
I782
tp1566
a(S'sow'
p1567
I783
tp1568
a(S'sox'
p1569
I784
tp1570
a(S'soy'
p1571
I785
tp1572
a(S'spa'
p1573
I786
tp1574
a(S'spy'
p1575
I787
tp1576
a(S'sri'
p1577
I788
tp1578
a(S'sty'
p1579
I789
tp1580
a(S'sub'
p1581
I790
tp1582
a(S'sue'
p1583
I791
tp1584
a(S'sum'
p1585
I792
tp1586
a(S'sun'
p1587
I793
tp1588
a(S'sup'
p1589
I794
tp1590
a(S'suq'
p1591
I795
tp1592
a(S'syn'
p1593
I796
tp1594
a(S'tab'
p1595
I797
tp1596
a(S'tad'
p1597
I798
tp1598
a(S'tae'
p1599
I799
tp1600
a(S'tag'
p1601
I800
tp1602
a(S'taj'
p1603
I801
tp1604
a(S'tam'
p1605
I802
tp1606
a(S'tan'
p1607
I803
tp1608
a(S'tao'
p1609
I804
tp1610
a(S'tap'
p1611
I805
tp1612
a(S'tar'
p1613
I806
tp1614
a(S'tas'
p1615
I807
tp1616
a(S'tat'
p1617
I808
tp1618
a(S'tau'
p1619
I809
tp1620
a(S'tav'
p1621
I810
tp1622
a(S'taw'
p1623
I811
tp1624
a(S'tax'
p1625
I812
tp1626
a(S'tea'
p1627
I813
tp1628
a(S'ted'
p1629
I814
tp1630
a(S'tee'
p1631
I815
tp1632
a(S'teg'
p1633
I816
tp1634
a(S'tel'
p1635
I817
tp1636
a(S'ten'
p1637
I818
tp1638
a(S'tet'
p1639
I819
tp1640
a(S'tew'
p1641
I820
tp1642
a(S'the'
p1643
I821
tp1644
a(S'tho'
p1645
I822
tp1646
a(S'thy'
p1647
I823
tp1648
a(S'tic'
p1649
I824
tp1650
a(S'tie'
p1651
I825
tp1652
a(S'til'
p1653
I826
tp1654
a(S'tin'
p1655
I827
tp1656
a(S'tip'
p1657
I828
tp1658
a(S'tis'
p1659
I829
tp1660
a(S'tit'
p1661
I830
tp1662
a(S'tod'
p1663
I831
tp1664
a(S'toe'
p1665
I832
tp1666
a(S'tog'
p1667
I833
tp1668
a(S'tom'
p1669
I834
tp1670
a(S'ton'
p1671
I835
tp1672
a(S'too'
p1673
I836
tp1674
a(S'top'
p1675
I837
tp1676
a(S'tor'
p1677
I838
tp1678
a(S'tot'
p1679
I839
tp1680
a(S'tow'
p1681
I840
tp1682
a(S'toy'
p1683
I841
tp1684
a(S'try'
p1685
I842
tp1686
a(S'tsk'
p1687
I843
tp1688
a(S'tub'
p1689
I844
tp1690
a(S'tug'
p1691
I845
tp1692
a(S'tui'
p1693
I846
tp1694
a(S'tun'
p1695
I847
tp1696
a(S'tup'
p1697
I848
tp1698
a(S'tut'
p1699
I849
tp1700
a(S'tux'
p1701
I850
tp1702
a(S'twa'
p1703
I851
tp1704
a(S'two'
p1705
I852
tp1706
a(S'tye'
p1707
I853
tp1708
a(S'udo'
p1709
I854
tp1710
a(S'uke'
p1711
I855
tp1712
a(S'ulu'
p1713
I856
tp1714
a(S'umm'
p1715
I857
tp1716
a(S'ump'
p1717
I858
tp1718
a(S'uns'
p1719
I859
tp1720
a(S'upo'
p1721
I860
tp1722
a(S'ups'
p1723
I861
tp1724
a(S'urb'
p1725
I862
tp1726
a(S'urd'
p1727
I863
tp1728
a(S'urn'
p1729
I864
tp1730
a(S'use'
p1731
I865
tp1732
a(S'uta'
p1733
I866
tp1734
a(S'uts'
p1735
I867
tp1736
a(S'vac'
p1737
I868
tp1738
a(S'van'
p1739
I869
tp1740
a(S'var'
p1741
I870
tp1742
a(S'vas'
p1743
I871
tp1744
a(S'vat'
p1745
I872
tp1746
a(S'vau'
p1747
I873
tp1748
a(S'vav'
p1749
I874
tp1750
a(S'vaw'
p1751
I875
tp1752
a(S'vee'
p1753
I876
tp1754
a(S'veg'
p1755
I877
tp1756
a(S'vet'
p1757
I878
tp1758
a(S'vex'
p1759
I879
tp1760
a(S'via'
p1761
I880
tp1762
a(S'vie'
p1763
I881
tp1764
a(S'vig'
p1765
I882
tp1766
a(S'vim'
p1767
I883
tp1768
a(S'vis'
p1769
I884
tp1770
a(S'voe'
p1771
I885
tp1772
a(S'vow'
p1773
I886
tp1774
a(S'vox'
p1775
I887
tp1776
a(S'vug'
p1777
I888
tp1778
a(S'wab'
p1779
I889
tp1780
a(S'wad'
p1781
I890
tp1782
a(S'wae'
p1783
I891
tp1784
a(S'wag'
p1785
I892
tp1786
a(S'wan'
p1787
I893
tp1788
a(S'wap'
p1789
I894
tp1790
a(S'war'
p1791
I895
tp1792
a(S'was'
p1793
I896
tp1794
a(S'wat'
p1795
I897
tp1796
a(S'waw'
p1797
I898
tp1798
a(S'wax'
p1799
I899
tp1800
a(S'way'
p1801
I900
tp1802
a(S'web'
p1803
I901
tp1804
a(S'wed'
p1805
I902
tp1806
a(S'wee'
p1807
I903
tp1808
a(S'wen'
p1809
I904
tp1810
a(S'wet'
p1811
I905
tp1812
a(S'wha'
p1813
I906
tp1814
a(S'who'
p1815
I907
tp1816
a(S'why'
p1817
I908
tp1818
a(S'wig'
p1819
I909
tp1820
a(S'win'
p1821
I910
tp1822
a(S'wis'
p1823
I911
tp1824
a(S'wit'
p1825
I912
tp1826
a(S'wiz'
p1827
I913
tp1828
a(S'woe'
p1829
I914
tp1830
a(S'wog'
p1831
I915
tp1832
a(S'wok'
p1833
I916
tp1834
a(S'won'
p1835
I917
tp1836
a(S'woo'
p1837
I918
tp1838
a(S'wop'
p1839
I919
tp1840
a(S'wos'
p1841
I920
tp1842
a(S'wot'
p1843
I921
tp1844
a(S'wow'
p1845
I922
tp1846
a(S'wry'
p1847
I923
tp1848
a(S'wud'
p1849
I924
tp1850
a(S'wye'
p1851
I925
tp1852
a(S'wyn'
p1853
I926
tp1854
a(S'xis'
p1855
I927
tp1856
a(S'yah'
p1857
I928
tp1858
a(S'yak'
p1859
I929
tp1860
a(S'yam'
p1861
I930
tp1862
a(S'yap'
p1863
I931
tp1864
a(S'yar'
p1865
I932
tp1866
a(S'yaw'
p1867
I933
tp1868
a(S'yay'
p1869
I934
tp1870
a(S'yea'
p1871
I935
tp1872
a(S'yeh'
p1873
I936
tp1874
a(S'yen'
p1875
I937
tp1876
a(S'yep'
p1877
I938
tp1878
a(S'yes'
p1879
I939
tp1880
a(S'yet'
p1881
I940
tp1882
a(S'yew'
p1883
I941
tp1884
a(S'yid'
p1885
I942
tp1886
a(S'yin'
p1887
I943
tp1888
a(S'yip'
p1889
I944
tp1890
a(S'yob'
p1891
I945
tp1892
a(S'yod'
p1893
I946
tp1894
a(S'yok'
p1895
I947
tp1896
a(S'yom'
p1897
I948
tp1898
a(S'yon'
p1899
I949
tp1900
a(S'you'
p1901
I950
tp1902
a(S'yow'
p1903
I951
tp1904
a(S'yuk'
p1905
I952
tp1906
a(S'yum'
p1907
I953
tp1908
a(S'yup'
p1909
I954
tp1910
a(S'zag'
p1911
I955
tp1912
a(S'zap'
p1913
I956
tp1914
a(S'zax'
p1915
I957
tp1916
a(S'zed'
p1917
I958
tp1918
a(S'zee'
p1919
I959
tp1920
a(S'zek'
p1921
I960
tp1922
a(S'zig'
p1923
I961
tp1924
a(S'zin'
p1925
I962
tp1926
a(S'zip'
p1927
I963
tp1928
a(S'zit'
p1929
I964
tp1930
a(S'zoa'
p1931
I965
tp1932
a(S'zoo'
p1933
I966
tp1934
a.